ARM GAS  /tmp/ccSpQgdi.s 			page 1


   1              		.cpu cortex-m4
   2              		.arch armv7e-m
   3              		.fpu fpv4-sp-d16
   4              		.eabi_attribute 27, 1
   5              		.eabi_attribute 28, 1
   6              		.eabi_attribute 20, 1
   7              		.eabi_attribute 21, 1
   8              		.eabi_attribute 23, 3
   9              		.eabi_attribute 24, 1
  10              		.eabi_attribute 25, 1
  11              		.eabi_attribute 26, 1
  12              		.eabi_attribute 30, 1
  13              		.eabi_attribute 34, 1
  14              		.eabi_attribute 18, 4
  15              		.file	"gd32f4xx_fmc.c"
  16              		.text
  17              	.Ltext0:
  18              		.cfi_sections	.debug_frame
  19              		.section	.text.fmc_wscnt_set,"ax",%progbits
  20              		.align	1
  21              		.global	fmc_wscnt_set
  22              		.syntax unified
  23              		.thumb
  24              		.thumb_func
  26              	fmc_wscnt_set:
  27              	.LVL0:
  28              	.LFB116:
  29              		.file 1 "Drivers/GD32_F470_STD_Driver/Source/gd32f4xx_fmc.c"
   1:Drivers/GD32_F470_STD_Driver/Source/gd32f4xx_fmc.c **** /*!
   2:Drivers/GD32_F470_STD_Driver/Source/gd32f4xx_fmc.c ****     \file    gd32f4xx_fmc.c
   3:Drivers/GD32_F470_STD_Driver/Source/gd32f4xx_fmc.c ****     \brief   FMC driver
   4:Drivers/GD32_F470_STD_Driver/Source/gd32f4xx_fmc.c **** 
   5:Drivers/GD32_F470_STD_Driver/Source/gd32f4xx_fmc.c ****     \version 2016-08-15, V1.0.0, firmware for GD32F4xx
   6:Drivers/GD32_F470_STD_Driver/Source/gd32f4xx_fmc.c ****     \version 2018-12-12, V2.0.0, firmware for GD32F4xx
   7:Drivers/GD32_F470_STD_Driver/Source/gd32f4xx_fmc.c ****     \version 2020-09-30, V2.1.0, firmware for GD32F4xx
   8:Drivers/GD32_F470_STD_Driver/Source/gd32f4xx_fmc.c ****     \version 2022-03-09, V3.0.0, firmware for GD32F4xx
   9:Drivers/GD32_F470_STD_Driver/Source/gd32f4xx_fmc.c **** */
  10:Drivers/GD32_F470_STD_Driver/Source/gd32f4xx_fmc.c **** 
  11:Drivers/GD32_F470_STD_Driver/Source/gd32f4xx_fmc.c **** /*
  12:Drivers/GD32_F470_STD_Driver/Source/gd32f4xx_fmc.c ****     Copyright (c) 2022, GigaDevice Semiconductor Inc.
  13:Drivers/GD32_F470_STD_Driver/Source/gd32f4xx_fmc.c **** 
  14:Drivers/GD32_F470_STD_Driver/Source/gd32f4xx_fmc.c ****     Redistribution and use in source and binary forms, with or without modification,
  15:Drivers/GD32_F470_STD_Driver/Source/gd32f4xx_fmc.c **** are permitted provided that the following conditions are met:
  16:Drivers/GD32_F470_STD_Driver/Source/gd32f4xx_fmc.c **** 
  17:Drivers/GD32_F470_STD_Driver/Source/gd32f4xx_fmc.c ****     1. Redistributions of source code must retain the above copyright notice, this
  18:Drivers/GD32_F470_STD_Driver/Source/gd32f4xx_fmc.c ****        list of conditions and the following disclaimer.
  19:Drivers/GD32_F470_STD_Driver/Source/gd32f4xx_fmc.c ****     2. Redistributions in binary form must reproduce the above copyright notice,
  20:Drivers/GD32_F470_STD_Driver/Source/gd32f4xx_fmc.c ****        this list of conditions and the following disclaimer in the documentation
  21:Drivers/GD32_F470_STD_Driver/Source/gd32f4xx_fmc.c ****        and/or other materials provided with the distribution.
  22:Drivers/GD32_F470_STD_Driver/Source/gd32f4xx_fmc.c ****     3. Neither the name of the copyright holder nor the names of its contributors
  23:Drivers/GD32_F470_STD_Driver/Source/gd32f4xx_fmc.c ****        may be used to endorse or promote products derived from this software without
  24:Drivers/GD32_F470_STD_Driver/Source/gd32f4xx_fmc.c ****        specific prior written permission.
  25:Drivers/GD32_F470_STD_Driver/Source/gd32f4xx_fmc.c **** 
  26:Drivers/GD32_F470_STD_Driver/Source/gd32f4xx_fmc.c ****     THIS SOFTWARE IS PROVIDED BY THE COPYRIGHT HOLDERS AND CONTRIBUTORS "AS IS"
  27:Drivers/GD32_F470_STD_Driver/Source/gd32f4xx_fmc.c **** AND ANY EXPRESS OR IMPLIED WARRANTIES, INCLUDING, BUT NOT LIMITED TO, THE IMPLIED
  28:Drivers/GD32_F470_STD_Driver/Source/gd32f4xx_fmc.c **** WARRANTIES OF MERCHANTABILITY AND FITNESS FOR A PARTICULAR PURPOSE ARE DISCLAIMED.
  29:Drivers/GD32_F470_STD_Driver/Source/gd32f4xx_fmc.c **** IN NO EVENT SHALL THE COPYRIGHT HOLDER OR CONTRIBUTORS BE LIABLE FOR ANY DIRECT,
ARM GAS  /tmp/ccSpQgdi.s 			page 2


  30:Drivers/GD32_F470_STD_Driver/Source/gd32f4xx_fmc.c **** INDIRECT, INCIDENTAL, SPECIAL, EXEMPLARY, OR CONSEQUENTIAL DAMAGES (INCLUDING, BUT
  31:Drivers/GD32_F470_STD_Driver/Source/gd32f4xx_fmc.c **** NOT LIMITED TO, PROCUREMENT OF SUBSTITUTE GOODS OR SERVICES; LOSS OF USE, DATA, OR
  32:Drivers/GD32_F470_STD_Driver/Source/gd32f4xx_fmc.c **** PROFITS; OR BUSINESS INTERRUPTION) HOWEVER CAUSED AND ON ANY THEORY OF LIABILITY,
  33:Drivers/GD32_F470_STD_Driver/Source/gd32f4xx_fmc.c **** WHETHER IN CONTRACT, STRICT LIABILITY, OR TORT (INCLUDING NEGLIGENCE OR OTHERWISE)
  34:Drivers/GD32_F470_STD_Driver/Source/gd32f4xx_fmc.c **** ARISING IN ANY WAY OUT OF THE USE OF THIS SOFTWARE, EVEN IF ADVISED OF THE POSSIBILITY
  35:Drivers/GD32_F470_STD_Driver/Source/gd32f4xx_fmc.c **** OF SUCH DAMAGE.
  36:Drivers/GD32_F470_STD_Driver/Source/gd32f4xx_fmc.c **** */
  37:Drivers/GD32_F470_STD_Driver/Source/gd32f4xx_fmc.c **** 
  38:Drivers/GD32_F470_STD_Driver/Source/gd32f4xx_fmc.c **** 
  39:Drivers/GD32_F470_STD_Driver/Source/gd32f4xx_fmc.c **** #include "gd32f4xx_fmc.h"
  40:Drivers/GD32_F470_STD_Driver/Source/gd32f4xx_fmc.c **** 
  41:Drivers/GD32_F470_STD_Driver/Source/gd32f4xx_fmc.c **** /*!
  42:Drivers/GD32_F470_STD_Driver/Source/gd32f4xx_fmc.c ****     \brief    set the FMC wait state counter
  43:Drivers/GD32_F470_STD_Driver/Source/gd32f4xx_fmc.c ****     \param[in]  wscnt: wait state counter value
  44:Drivers/GD32_F470_STD_Driver/Source/gd32f4xx_fmc.c ****                 only one parameter can be selected which is shown as below:
  45:Drivers/GD32_F470_STD_Driver/Source/gd32f4xx_fmc.c ****       \arg        WS_WSCNT_0: FMC 0 wait
  46:Drivers/GD32_F470_STD_Driver/Source/gd32f4xx_fmc.c ****       \arg        WS_WSCNT_1: FMC 1 wait
  47:Drivers/GD32_F470_STD_Driver/Source/gd32f4xx_fmc.c ****       \arg        WS_WSCNT_2: FMC 2 wait
  48:Drivers/GD32_F470_STD_Driver/Source/gd32f4xx_fmc.c ****       \arg        WS_WSCNT_3: FMC 3 wait
  49:Drivers/GD32_F470_STD_Driver/Source/gd32f4xx_fmc.c ****       \arg        WS_WSCNT_4: FMC 4 wait
  50:Drivers/GD32_F470_STD_Driver/Source/gd32f4xx_fmc.c ****       \arg        WS_WSCNT_5: FMC 5 wait
  51:Drivers/GD32_F470_STD_Driver/Source/gd32f4xx_fmc.c ****       \arg        WS_WSCNT_6: FMC 6 wait
  52:Drivers/GD32_F470_STD_Driver/Source/gd32f4xx_fmc.c ****       \arg        WS_WSCNT_7: FMC 7 wait
  53:Drivers/GD32_F470_STD_Driver/Source/gd32f4xx_fmc.c ****       \arg        WS_WSCNT_8: FMC 8 wait
  54:Drivers/GD32_F470_STD_Driver/Source/gd32f4xx_fmc.c ****       \arg        WS_WSCNT_9: FMC 9 wait
  55:Drivers/GD32_F470_STD_Driver/Source/gd32f4xx_fmc.c ****       \arg        WS_WSCNT_10: FMC 10 wait
  56:Drivers/GD32_F470_STD_Driver/Source/gd32f4xx_fmc.c ****       \arg        WS_WSCNT_11: FMC 11 wait
  57:Drivers/GD32_F470_STD_Driver/Source/gd32f4xx_fmc.c ****       \arg        WS_WSCNT_12: FMC 12 wait
  58:Drivers/GD32_F470_STD_Driver/Source/gd32f4xx_fmc.c ****       \arg        WS_WSCNT_13: FMC 13 wait
  59:Drivers/GD32_F470_STD_Driver/Source/gd32f4xx_fmc.c ****       \arg        WS_WSCNT_14: FMC 14 wait
  60:Drivers/GD32_F470_STD_Driver/Source/gd32f4xx_fmc.c ****       \arg        WS_WSCNT_15: FMC 15 wait
  61:Drivers/GD32_F470_STD_Driver/Source/gd32f4xx_fmc.c ****     \param[out] none
  62:Drivers/GD32_F470_STD_Driver/Source/gd32f4xx_fmc.c ****     \retval     none
  63:Drivers/GD32_F470_STD_Driver/Source/gd32f4xx_fmc.c **** */
  64:Drivers/GD32_F470_STD_Driver/Source/gd32f4xx_fmc.c **** void fmc_wscnt_set(uint32_t wscnt)
  65:Drivers/GD32_F470_STD_Driver/Source/gd32f4xx_fmc.c **** {
  30              		.loc 1 65 1 view -0
  31              		.cfi_startproc
  32              		@ args = 0, pretend = 0, frame = 0
  33              		@ frame_needed = 0, uses_anonymous_args = 0
  34              		@ link register save eliminated.
  66:Drivers/GD32_F470_STD_Driver/Source/gd32f4xx_fmc.c ****     uint32_t reg;
  35              		.loc 1 66 5 view .LVU1
  67:Drivers/GD32_F470_STD_Driver/Source/gd32f4xx_fmc.c **** 
  68:Drivers/GD32_F470_STD_Driver/Source/gd32f4xx_fmc.c ****     reg = FMC_WS;
  36              		.loc 1 68 5 view .LVU2
  37              		.loc 1 68 9 is_stmt 0 view .LVU3
  38 0000 044A     		ldr	r2, .L2
  39 0002 D2F8003C 		ldr	r3, [r2, #3072]
  40              	.LVL1:
  69:Drivers/GD32_F470_STD_Driver/Source/gd32f4xx_fmc.c ****     /* set the wait state counter value */
  70:Drivers/GD32_F470_STD_Driver/Source/gd32f4xx_fmc.c ****     reg &= ~FMC_WC_WSCNT;
  41              		.loc 1 70 5 is_stmt 1 view .LVU4
  42              		.loc 1 70 9 is_stmt 0 view .LVU5
  43 0006 23F00F03 		bic	r3, r3, #15
  44              	.LVL2:
  71:Drivers/GD32_F470_STD_Driver/Source/gd32f4xx_fmc.c ****     FMC_WS = (reg | wscnt);
ARM GAS  /tmp/ccSpQgdi.s 			page 3


  45              		.loc 1 71 5 is_stmt 1 view .LVU6
  46              		.loc 1 71 19 is_stmt 0 view .LVU7
  47 000a 0343     		orrs	r3, r3, r0
  48              	.LVL3:
  49              		.loc 1 71 12 view .LVU8
  50 000c C2F8003C 		str	r3, [r2, #3072]
  72:Drivers/GD32_F470_STD_Driver/Source/gd32f4xx_fmc.c **** }
  51              		.loc 1 72 1 view .LVU9
  52 0010 7047     		bx	lr
  53              	.L3:
  54 0012 00BF     		.align	2
  55              	.L2:
  56 0014 00300240 		.word	1073885184
  57              		.cfi_endproc
  58              	.LFE116:
  60              		.section	.text.fmc_unlock,"ax",%progbits
  61              		.align	1
  62              		.global	fmc_unlock
  63              		.syntax unified
  64              		.thumb
  65              		.thumb_func
  67              	fmc_unlock:
  68              	.LFB117:
  73:Drivers/GD32_F470_STD_Driver/Source/gd32f4xx_fmc.c **** 
  74:Drivers/GD32_F470_STD_Driver/Source/gd32f4xx_fmc.c **** /*!
  75:Drivers/GD32_F470_STD_Driver/Source/gd32f4xx_fmc.c ****     \brief    unlock the main FMC operation
  76:Drivers/GD32_F470_STD_Driver/Source/gd32f4xx_fmc.c ****     \param[in]  none
  77:Drivers/GD32_F470_STD_Driver/Source/gd32f4xx_fmc.c ****     \param[out] none
  78:Drivers/GD32_F470_STD_Driver/Source/gd32f4xx_fmc.c ****     \retval     none
  79:Drivers/GD32_F470_STD_Driver/Source/gd32f4xx_fmc.c **** */
  80:Drivers/GD32_F470_STD_Driver/Source/gd32f4xx_fmc.c **** void fmc_unlock(void)
  81:Drivers/GD32_F470_STD_Driver/Source/gd32f4xx_fmc.c **** {
  69              		.loc 1 81 1 is_stmt 1 view -0
  70              		.cfi_startproc
  71              		@ args = 0, pretend = 0, frame = 0
  72              		@ frame_needed = 0, uses_anonymous_args = 0
  73              		@ link register save eliminated.
  82:Drivers/GD32_F470_STD_Driver/Source/gd32f4xx_fmc.c ****     if((RESET != (FMC_CTL & FMC_CTL_LK))) {
  74              		.loc 1 82 5 view .LVU11
  75              		.loc 1 82 19 is_stmt 0 view .LVU12
  76 0000 074B     		ldr	r3, .L7
  77 0002 D3F8103C 		ldr	r3, [r3, #3088]
  78              		.loc 1 82 7 view .LVU13
  79 0006 002B     		cmp	r3, #0
  80 0008 00DB     		blt	.L6
  81              	.L4:
  83:Drivers/GD32_F470_STD_Driver/Source/gd32f4xx_fmc.c ****         /* write the FMC key */
  84:Drivers/GD32_F470_STD_Driver/Source/gd32f4xx_fmc.c ****         FMC_KEY = UNLOCK_KEY0;
  85:Drivers/GD32_F470_STD_Driver/Source/gd32f4xx_fmc.c ****         FMC_KEY = UNLOCK_KEY1;
  86:Drivers/GD32_F470_STD_Driver/Source/gd32f4xx_fmc.c ****     }
  87:Drivers/GD32_F470_STD_Driver/Source/gd32f4xx_fmc.c **** }
  82              		.loc 1 87 1 view .LVU14
  83 000a 7047     		bx	lr
  84              	.L6:
  84:Drivers/GD32_F470_STD_Driver/Source/gd32f4xx_fmc.c ****         FMC_KEY = UNLOCK_KEY1;
  85              		.loc 1 84 9 is_stmt 1 view .LVU15
  84:Drivers/GD32_F470_STD_Driver/Source/gd32f4xx_fmc.c ****         FMC_KEY = UNLOCK_KEY1;
ARM GAS  /tmp/ccSpQgdi.s 			page 4


  86              		.loc 1 84 17 is_stmt 0 view .LVU16
  87 000c 044B     		ldr	r3, .L7
  88 000e 054A     		ldr	r2, .L7+4
  89 0010 C3F8042C 		str	r2, [r3, #3076]
  85:Drivers/GD32_F470_STD_Driver/Source/gd32f4xx_fmc.c ****     }
  90              		.loc 1 85 9 is_stmt 1 view .LVU17
  85:Drivers/GD32_F470_STD_Driver/Source/gd32f4xx_fmc.c ****     }
  91              		.loc 1 85 17 is_stmt 0 view .LVU18
  92 0014 02F18832 		add	r2, r2, #-2004318072
  93 0018 C3F8042C 		str	r2, [r3, #3076]
  94              		.loc 1 87 1 view .LVU19
  95 001c F5E7     		b	.L4
  96              	.L8:
  97 001e 00BF     		.align	2
  98              	.L7:
  99 0020 00300240 		.word	1073885184
 100 0024 23016745 		.word	1164378403
 101              		.cfi_endproc
 102              	.LFE117:
 104              		.section	.text.fmc_lock,"ax",%progbits
 105              		.align	1
 106              		.global	fmc_lock
 107              		.syntax unified
 108              		.thumb
 109              		.thumb_func
 111              	fmc_lock:
 112              	.LFB118:
  88:Drivers/GD32_F470_STD_Driver/Source/gd32f4xx_fmc.c **** 
  89:Drivers/GD32_F470_STD_Driver/Source/gd32f4xx_fmc.c **** /*!
  90:Drivers/GD32_F470_STD_Driver/Source/gd32f4xx_fmc.c ****     \brief    lock the main FMC operation
  91:Drivers/GD32_F470_STD_Driver/Source/gd32f4xx_fmc.c ****     \param[in]  none
  92:Drivers/GD32_F470_STD_Driver/Source/gd32f4xx_fmc.c ****     \param[out] none
  93:Drivers/GD32_F470_STD_Driver/Source/gd32f4xx_fmc.c ****     \retval     none
  94:Drivers/GD32_F470_STD_Driver/Source/gd32f4xx_fmc.c **** */
  95:Drivers/GD32_F470_STD_Driver/Source/gd32f4xx_fmc.c **** void fmc_lock(void)
  96:Drivers/GD32_F470_STD_Driver/Source/gd32f4xx_fmc.c **** {
 113              		.loc 1 96 1 is_stmt 1 view -0
 114              		.cfi_startproc
 115              		@ args = 0, pretend = 0, frame = 0
 116              		@ frame_needed = 0, uses_anonymous_args = 0
 117              		@ link register save eliminated.
  97:Drivers/GD32_F470_STD_Driver/Source/gd32f4xx_fmc.c ****     /* set the LK bit*/
  98:Drivers/GD32_F470_STD_Driver/Source/gd32f4xx_fmc.c ****     FMC_CTL |= FMC_CTL_LK;
 118              		.loc 1 98 5 view .LVU21
 119              		.loc 1 98 13 is_stmt 0 view .LVU22
 120 0000 034A     		ldr	r2, .L10
 121 0002 D2F8103C 		ldr	r3, [r2, #3088]
 122 0006 43F00043 		orr	r3, r3, #-2147483648
 123 000a C2F8103C 		str	r3, [r2, #3088]
  99:Drivers/GD32_F470_STD_Driver/Source/gd32f4xx_fmc.c **** }
 124              		.loc 1 99 1 view .LVU23
 125 000e 7047     		bx	lr
 126              	.L11:
 127              		.align	2
 128              	.L10:
 129 0010 00300240 		.word	1073885184
 130              		.cfi_endproc
ARM GAS  /tmp/ccSpQgdi.s 			page 5


 131              	.LFE118:
 133              		.section	.text.ob_unlock,"ax",%progbits
 134              		.align	1
 135              		.global	ob_unlock
 136              		.syntax unified
 137              		.thumb
 138              		.thumb_func
 140              	ob_unlock:
 141              	.LFB127:
 100:Drivers/GD32_F470_STD_Driver/Source/gd32f4xx_fmc.c **** 
 101:Drivers/GD32_F470_STD_Driver/Source/gd32f4xx_fmc.c **** #if defined (GD32F425) || defined (GD32F427) || defined (GD32F470)
 102:Drivers/GD32_F470_STD_Driver/Source/gd32f4xx_fmc.c **** 
 103:Drivers/GD32_F470_STD_Driver/Source/gd32f4xx_fmc.c **** /*!
 104:Drivers/GD32_F470_STD_Driver/Source/gd32f4xx_fmc.c ****     \brief      FMC erase page
 105:Drivers/GD32_F470_STD_Driver/Source/gd32f4xx_fmc.c ****     \param[in]  page_addr: the page address to be erased.
 106:Drivers/GD32_F470_STD_Driver/Source/gd32f4xx_fmc.c ****     \param[out] none
 107:Drivers/GD32_F470_STD_Driver/Source/gd32f4xx_fmc.c ****     \retval     state of FMC
 108:Drivers/GD32_F470_STD_Driver/Source/gd32f4xx_fmc.c ****       \arg        FMC_READY: the operation has been completed
 109:Drivers/GD32_F470_STD_Driver/Source/gd32f4xx_fmc.c ****       \arg        FMC_BUSY: the operation is in progress
 110:Drivers/GD32_F470_STD_Driver/Source/gd32f4xx_fmc.c ****       \arg        FMC_RDDERR: read D-bus protection error
 111:Drivers/GD32_F470_STD_Driver/Source/gd32f4xx_fmc.c ****       \arg        FMC_PGSERR: program sequence error
 112:Drivers/GD32_F470_STD_Driver/Source/gd32f4xx_fmc.c ****       \arg        FMC_PGMERR: program size not match error
 113:Drivers/GD32_F470_STD_Driver/Source/gd32f4xx_fmc.c ****       \arg        FMC_WPERR: erase/program protection error
 114:Drivers/GD32_F470_STD_Driver/Source/gd32f4xx_fmc.c ****       \arg        FMC_OPERR: operation error
 115:Drivers/GD32_F470_STD_Driver/Source/gd32f4xx_fmc.c ****       \arg        FMC_TOERR: timeout error
 116:Drivers/GD32_F470_STD_Driver/Source/gd32f4xx_fmc.c **** */
 117:Drivers/GD32_F470_STD_Driver/Source/gd32f4xx_fmc.c **** fmc_state_enum fmc_page_erase(uint32_t page_addr)
 118:Drivers/GD32_F470_STD_Driver/Source/gd32f4xx_fmc.c **** {
 119:Drivers/GD32_F470_STD_Driver/Source/gd32f4xx_fmc.c ****     fmc_state_enum fmc_state = FMC_READY;
 120:Drivers/GD32_F470_STD_Driver/Source/gd32f4xx_fmc.c **** 
 121:Drivers/GD32_F470_STD_Driver/Source/gd32f4xx_fmc.c ****     /* wait for the FMC ready */
 122:Drivers/GD32_F470_STD_Driver/Source/gd32f4xx_fmc.c ****     fmc_state = fmc_ready_wait(FMC_TIMEOUT_COUNT);
 123:Drivers/GD32_F470_STD_Driver/Source/gd32f4xx_fmc.c **** 
 124:Drivers/GD32_F470_STD_Driver/Source/gd32f4xx_fmc.c ****     if(FMC_READY == fmc_state) {
 125:Drivers/GD32_F470_STD_Driver/Source/gd32f4xx_fmc.c ****         /* unlock page erase operation */
 126:Drivers/GD32_F470_STD_Driver/Source/gd32f4xx_fmc.c ****         FMC_PEKEY = UNLOCK_PE_KEY;
 127:Drivers/GD32_F470_STD_Driver/Source/gd32f4xx_fmc.c **** 
 128:Drivers/GD32_F470_STD_Driver/Source/gd32f4xx_fmc.c ****         /* start page erase */
 129:Drivers/GD32_F470_STD_Driver/Source/gd32f4xx_fmc.c ****         FMC_PECFG = FMC_PE_EN | page_addr;
 130:Drivers/GD32_F470_STD_Driver/Source/gd32f4xx_fmc.c ****         FMC_CTL &= ~FMC_CTL_SN;
 131:Drivers/GD32_F470_STD_Driver/Source/gd32f4xx_fmc.c ****         FMC_CTL |= FMC_CTL_SER;
 132:Drivers/GD32_F470_STD_Driver/Source/gd32f4xx_fmc.c ****         FMC_CTL |= FMC_CTL_START;
 133:Drivers/GD32_F470_STD_Driver/Source/gd32f4xx_fmc.c **** 
 134:Drivers/GD32_F470_STD_Driver/Source/gd32f4xx_fmc.c ****         /* wait for the FMC ready */
 135:Drivers/GD32_F470_STD_Driver/Source/gd32f4xx_fmc.c ****         fmc_state = fmc_ready_wait(FMC_TIMEOUT_COUNT);
 136:Drivers/GD32_F470_STD_Driver/Source/gd32f4xx_fmc.c **** 
 137:Drivers/GD32_F470_STD_Driver/Source/gd32f4xx_fmc.c ****         FMC_PECFG &= ~FMC_PE_EN;
 138:Drivers/GD32_F470_STD_Driver/Source/gd32f4xx_fmc.c ****         FMC_CTL &= ~FMC_CTL_SER;
 139:Drivers/GD32_F470_STD_Driver/Source/gd32f4xx_fmc.c ****     }
 140:Drivers/GD32_F470_STD_Driver/Source/gd32f4xx_fmc.c **** 
 141:Drivers/GD32_F470_STD_Driver/Source/gd32f4xx_fmc.c ****     /* return the FMC state */
 142:Drivers/GD32_F470_STD_Driver/Source/gd32f4xx_fmc.c ****     return fmc_state;
 143:Drivers/GD32_F470_STD_Driver/Source/gd32f4xx_fmc.c **** }
 144:Drivers/GD32_F470_STD_Driver/Source/gd32f4xx_fmc.c **** 
 145:Drivers/GD32_F470_STD_Driver/Source/gd32f4xx_fmc.c **** #endif
 146:Drivers/GD32_F470_STD_Driver/Source/gd32f4xx_fmc.c **** 
 147:Drivers/GD32_F470_STD_Driver/Source/gd32f4xx_fmc.c **** /*!
ARM GAS  /tmp/ccSpQgdi.s 			page 6


 148:Drivers/GD32_F470_STD_Driver/Source/gd32f4xx_fmc.c ****     \brief    FMC erase sector
 149:Drivers/GD32_F470_STD_Driver/Source/gd32f4xx_fmc.c ****     \param[in]  fmc_sector: select the sector to erase
 150:Drivers/GD32_F470_STD_Driver/Source/gd32f4xx_fmc.c ****                 only one parameter can be selected which is shown as below:
 151:Drivers/GD32_F470_STD_Driver/Source/gd32f4xx_fmc.c ****       \arg        CTL_SECTOR_NUMBER_0: sector 0
 152:Drivers/GD32_F470_STD_Driver/Source/gd32f4xx_fmc.c ****       \arg        CTL_SECTOR_NUMBER_1: sector 1
 153:Drivers/GD32_F470_STD_Driver/Source/gd32f4xx_fmc.c ****       \arg        CTL_SECTOR_NUMBER_2: sector 2
 154:Drivers/GD32_F470_STD_Driver/Source/gd32f4xx_fmc.c ****       \arg        CTL_SECTOR_NUMBER_3: sector 3
 155:Drivers/GD32_F470_STD_Driver/Source/gd32f4xx_fmc.c ****       \arg        CTL_SECTOR_NUMBER_4: sector 4
 156:Drivers/GD32_F470_STD_Driver/Source/gd32f4xx_fmc.c ****       \arg        CTL_SECTOR_NUMBER_5: sector 5
 157:Drivers/GD32_F470_STD_Driver/Source/gd32f4xx_fmc.c ****       \arg        CTL_SECTOR_NUMBER_6: sector 6
 158:Drivers/GD32_F470_STD_Driver/Source/gd32f4xx_fmc.c ****       \arg        CTL_SECTOR_NUMBER_7: sector 7
 159:Drivers/GD32_F470_STD_Driver/Source/gd32f4xx_fmc.c ****       \arg        CTL_SECTOR_NUMBER_8: sector 8
 160:Drivers/GD32_F470_STD_Driver/Source/gd32f4xx_fmc.c ****       \arg        CTL_SECTOR_NUMBER_9: sector 9
 161:Drivers/GD32_F470_STD_Driver/Source/gd32f4xx_fmc.c ****       \arg        CTL_SECTOR_NUMBER_10: sector 10
 162:Drivers/GD32_F470_STD_Driver/Source/gd32f4xx_fmc.c ****       \arg        CTL_SECTOR_NUMBER_11: sector 11
 163:Drivers/GD32_F470_STD_Driver/Source/gd32f4xx_fmc.c ****       \arg        CTL_SECTOR_NUMBER_12: sector 12
 164:Drivers/GD32_F470_STD_Driver/Source/gd32f4xx_fmc.c ****       \arg        CTL_SECTOR_NUMBER_13: sector 13
 165:Drivers/GD32_F470_STD_Driver/Source/gd32f4xx_fmc.c ****       \arg        CTL_SECTOR_NUMBER_14: sector 14
 166:Drivers/GD32_F470_STD_Driver/Source/gd32f4xx_fmc.c ****       \arg        CTL_SECTOR_NUMBER_15: sector 15
 167:Drivers/GD32_F470_STD_Driver/Source/gd32f4xx_fmc.c ****       \arg        CTL_SECTOR_NUMBER_16: sector 16
 168:Drivers/GD32_F470_STD_Driver/Source/gd32f4xx_fmc.c ****       \arg        CTL_SECTOR_NUMBER_17: sector 17
 169:Drivers/GD32_F470_STD_Driver/Source/gd32f4xx_fmc.c ****       \arg        CTL_SECTOR_NUMBER_18: sector 18
 170:Drivers/GD32_F470_STD_Driver/Source/gd32f4xx_fmc.c ****       \arg        CTL_SECTOR_NUMBER_19: sector 19
 171:Drivers/GD32_F470_STD_Driver/Source/gd32f4xx_fmc.c ****       \arg        CTL_SECTOR_NUMBER_20: sector 20
 172:Drivers/GD32_F470_STD_Driver/Source/gd32f4xx_fmc.c ****       \arg        CTL_SECTOR_NUMBER_21: sector 21
 173:Drivers/GD32_F470_STD_Driver/Source/gd32f4xx_fmc.c ****       \arg        CTL_SECTOR_NUMBER_22: sector 22
 174:Drivers/GD32_F470_STD_Driver/Source/gd32f4xx_fmc.c ****       \arg        CTL_SECTOR_NUMBER_23: sector 23
 175:Drivers/GD32_F470_STD_Driver/Source/gd32f4xx_fmc.c ****       \arg        CTL_SECTOR_NUMBER_24: sector 24
 176:Drivers/GD32_F470_STD_Driver/Source/gd32f4xx_fmc.c ****       \arg        CTL_SECTOR_NUMBER_25: sector 25
 177:Drivers/GD32_F470_STD_Driver/Source/gd32f4xx_fmc.c ****       \arg        CTL_SECTOR_NUMBER_26: sector 26
 178:Drivers/GD32_F470_STD_Driver/Source/gd32f4xx_fmc.c ****       \arg        CTL_SECTOR_NUMBER_27: sector 27
 179:Drivers/GD32_F470_STD_Driver/Source/gd32f4xx_fmc.c ****     \param[out] none
 180:Drivers/GD32_F470_STD_Driver/Source/gd32f4xx_fmc.c ****     \retval     state of FMC
 181:Drivers/GD32_F470_STD_Driver/Source/gd32f4xx_fmc.c ****       \arg        FMC_READY: the operation has been completed
 182:Drivers/GD32_F470_STD_Driver/Source/gd32f4xx_fmc.c ****       \arg        FMC_BUSY: the operation is in progress
 183:Drivers/GD32_F470_STD_Driver/Source/gd32f4xx_fmc.c ****       \arg        FMC_RDDERR: read D-bus protection error
 184:Drivers/GD32_F470_STD_Driver/Source/gd32f4xx_fmc.c ****       \arg        FMC_PGSERR: program sequence error
 185:Drivers/GD32_F470_STD_Driver/Source/gd32f4xx_fmc.c ****       \arg        FMC_PGMERR: program size not match error
 186:Drivers/GD32_F470_STD_Driver/Source/gd32f4xx_fmc.c ****       \arg        FMC_WPERR: erase/program protection error
 187:Drivers/GD32_F470_STD_Driver/Source/gd32f4xx_fmc.c ****       \arg        FMC_OPERR: operation error
 188:Drivers/GD32_F470_STD_Driver/Source/gd32f4xx_fmc.c ****       \arg        FMC_TOERR: timeout error
 189:Drivers/GD32_F470_STD_Driver/Source/gd32f4xx_fmc.c **** */
 190:Drivers/GD32_F470_STD_Driver/Source/gd32f4xx_fmc.c **** fmc_state_enum fmc_sector_erase(uint32_t fmc_sector)
 191:Drivers/GD32_F470_STD_Driver/Source/gd32f4xx_fmc.c **** {
 192:Drivers/GD32_F470_STD_Driver/Source/gd32f4xx_fmc.c ****     fmc_state_enum fmc_state = FMC_READY;
 193:Drivers/GD32_F470_STD_Driver/Source/gd32f4xx_fmc.c ****     /* wait for the FMC ready */
 194:Drivers/GD32_F470_STD_Driver/Source/gd32f4xx_fmc.c ****     fmc_state = fmc_ready_wait(FMC_TIMEOUT_COUNT);
 195:Drivers/GD32_F470_STD_Driver/Source/gd32f4xx_fmc.c **** 
 196:Drivers/GD32_F470_STD_Driver/Source/gd32f4xx_fmc.c ****     if(FMC_READY == fmc_state) {
 197:Drivers/GD32_F470_STD_Driver/Source/gd32f4xx_fmc.c ****         /* start sector erase */
 198:Drivers/GD32_F470_STD_Driver/Source/gd32f4xx_fmc.c ****         FMC_CTL &= ~FMC_CTL_SN;
 199:Drivers/GD32_F470_STD_Driver/Source/gd32f4xx_fmc.c ****         FMC_CTL |= (FMC_CTL_SER | fmc_sector);
 200:Drivers/GD32_F470_STD_Driver/Source/gd32f4xx_fmc.c ****         FMC_CTL |= FMC_CTL_START;
 201:Drivers/GD32_F470_STD_Driver/Source/gd32f4xx_fmc.c **** 
 202:Drivers/GD32_F470_STD_Driver/Source/gd32f4xx_fmc.c ****         /* wait for the FMC ready */
 203:Drivers/GD32_F470_STD_Driver/Source/gd32f4xx_fmc.c ****         fmc_state = fmc_ready_wait(FMC_TIMEOUT_COUNT);
 204:Drivers/GD32_F470_STD_Driver/Source/gd32f4xx_fmc.c **** 
ARM GAS  /tmp/ccSpQgdi.s 			page 7


 205:Drivers/GD32_F470_STD_Driver/Source/gd32f4xx_fmc.c ****         /* reset the SER bit */
 206:Drivers/GD32_F470_STD_Driver/Source/gd32f4xx_fmc.c ****         FMC_CTL &= (~FMC_CTL_SER);
 207:Drivers/GD32_F470_STD_Driver/Source/gd32f4xx_fmc.c ****         FMC_CTL &= ~FMC_CTL_SN;
 208:Drivers/GD32_F470_STD_Driver/Source/gd32f4xx_fmc.c ****     }
 209:Drivers/GD32_F470_STD_Driver/Source/gd32f4xx_fmc.c **** 
 210:Drivers/GD32_F470_STD_Driver/Source/gd32f4xx_fmc.c ****     /* return the FMC state */
 211:Drivers/GD32_F470_STD_Driver/Source/gd32f4xx_fmc.c ****     return fmc_state;
 212:Drivers/GD32_F470_STD_Driver/Source/gd32f4xx_fmc.c **** }
 213:Drivers/GD32_F470_STD_Driver/Source/gd32f4xx_fmc.c **** 
 214:Drivers/GD32_F470_STD_Driver/Source/gd32f4xx_fmc.c **** /*!
 215:Drivers/GD32_F470_STD_Driver/Source/gd32f4xx_fmc.c ****     \brief    FMC erase whole chip
 216:Drivers/GD32_F470_STD_Driver/Source/gd32f4xx_fmc.c ****     \param[in]  none
 217:Drivers/GD32_F470_STD_Driver/Source/gd32f4xx_fmc.c ****     \param[out] none
 218:Drivers/GD32_F470_STD_Driver/Source/gd32f4xx_fmc.c ****     \retval     state of FMC
 219:Drivers/GD32_F470_STD_Driver/Source/gd32f4xx_fmc.c ****       \arg        FMC_READY: the operation has been completed
 220:Drivers/GD32_F470_STD_Driver/Source/gd32f4xx_fmc.c ****       \arg        FMC_BUSY: the operation is in progress
 221:Drivers/GD32_F470_STD_Driver/Source/gd32f4xx_fmc.c ****       \arg        FMC_RDDERR: read D-bus protection error
 222:Drivers/GD32_F470_STD_Driver/Source/gd32f4xx_fmc.c ****       \arg        FMC_PGSERR: program sequence error
 223:Drivers/GD32_F470_STD_Driver/Source/gd32f4xx_fmc.c ****       \arg        FMC_PGMERR: program size not match error
 224:Drivers/GD32_F470_STD_Driver/Source/gd32f4xx_fmc.c ****       \arg        FMC_WPERR: erase/program protection error
 225:Drivers/GD32_F470_STD_Driver/Source/gd32f4xx_fmc.c ****       \arg        FMC_OPERR: operation error
 226:Drivers/GD32_F470_STD_Driver/Source/gd32f4xx_fmc.c ****       \arg        FMC_TOERR: timeout error
 227:Drivers/GD32_F470_STD_Driver/Source/gd32f4xx_fmc.c **** */
 228:Drivers/GD32_F470_STD_Driver/Source/gd32f4xx_fmc.c **** fmc_state_enum fmc_mass_erase(void)
 229:Drivers/GD32_F470_STD_Driver/Source/gd32f4xx_fmc.c **** {
 230:Drivers/GD32_F470_STD_Driver/Source/gd32f4xx_fmc.c ****     fmc_state_enum fmc_state = FMC_READY;
 231:Drivers/GD32_F470_STD_Driver/Source/gd32f4xx_fmc.c ****     /* wait for the FMC ready */
 232:Drivers/GD32_F470_STD_Driver/Source/gd32f4xx_fmc.c ****     fmc_state = fmc_ready_wait(FMC_TIMEOUT_COUNT);
 233:Drivers/GD32_F470_STD_Driver/Source/gd32f4xx_fmc.c **** 
 234:Drivers/GD32_F470_STD_Driver/Source/gd32f4xx_fmc.c ****     if(FMC_READY == fmc_state) {
 235:Drivers/GD32_F470_STD_Driver/Source/gd32f4xx_fmc.c ****         /* start whole chip erase */
 236:Drivers/GD32_F470_STD_Driver/Source/gd32f4xx_fmc.c ****         FMC_CTL |= (FMC_CTL_MER0 | FMC_CTL_MER1);
 237:Drivers/GD32_F470_STD_Driver/Source/gd32f4xx_fmc.c ****         FMC_CTL |= FMC_CTL_START;
 238:Drivers/GD32_F470_STD_Driver/Source/gd32f4xx_fmc.c **** 
 239:Drivers/GD32_F470_STD_Driver/Source/gd32f4xx_fmc.c ****         /* wait for the FMC ready */
 240:Drivers/GD32_F470_STD_Driver/Source/gd32f4xx_fmc.c ****         fmc_state = fmc_ready_wait(FMC_TIMEOUT_COUNT);
 241:Drivers/GD32_F470_STD_Driver/Source/gd32f4xx_fmc.c **** 
 242:Drivers/GD32_F470_STD_Driver/Source/gd32f4xx_fmc.c ****         /* reset the MER bits */
 243:Drivers/GD32_F470_STD_Driver/Source/gd32f4xx_fmc.c ****         FMC_CTL &= ~(FMC_CTL_MER0 | FMC_CTL_MER1);
 244:Drivers/GD32_F470_STD_Driver/Source/gd32f4xx_fmc.c ****     }
 245:Drivers/GD32_F470_STD_Driver/Source/gd32f4xx_fmc.c **** 
 246:Drivers/GD32_F470_STD_Driver/Source/gd32f4xx_fmc.c ****     /* return the fmc state */
 247:Drivers/GD32_F470_STD_Driver/Source/gd32f4xx_fmc.c ****     return fmc_state;
 248:Drivers/GD32_F470_STD_Driver/Source/gd32f4xx_fmc.c **** }
 249:Drivers/GD32_F470_STD_Driver/Source/gd32f4xx_fmc.c **** 
 250:Drivers/GD32_F470_STD_Driver/Source/gd32f4xx_fmc.c **** /*!
 251:Drivers/GD32_F470_STD_Driver/Source/gd32f4xx_fmc.c ****     \brief    FMC erase whole bank0
 252:Drivers/GD32_F470_STD_Driver/Source/gd32f4xx_fmc.c ****     \param[in]  none
 253:Drivers/GD32_F470_STD_Driver/Source/gd32f4xx_fmc.c ****     \param[out] none
 254:Drivers/GD32_F470_STD_Driver/Source/gd32f4xx_fmc.c ****     \retval     state of FMC
 255:Drivers/GD32_F470_STD_Driver/Source/gd32f4xx_fmc.c ****       \arg        FMC_READY: the operation has been completed
 256:Drivers/GD32_F470_STD_Driver/Source/gd32f4xx_fmc.c ****       \arg        FMC_BUSY: the operation is in progress
 257:Drivers/GD32_F470_STD_Driver/Source/gd32f4xx_fmc.c ****       \arg        FMC_RDDERR: read D-bus protection error
 258:Drivers/GD32_F470_STD_Driver/Source/gd32f4xx_fmc.c ****       \arg        FMC_PGSERR: program sequence error
 259:Drivers/GD32_F470_STD_Driver/Source/gd32f4xx_fmc.c ****       \arg        FMC_PGMERR: program size not match error
 260:Drivers/GD32_F470_STD_Driver/Source/gd32f4xx_fmc.c ****       \arg        FMC_WPERR: erase/program protection error
 261:Drivers/GD32_F470_STD_Driver/Source/gd32f4xx_fmc.c ****       \arg        FMC_OPERR: operation error
ARM GAS  /tmp/ccSpQgdi.s 			page 8


 262:Drivers/GD32_F470_STD_Driver/Source/gd32f4xx_fmc.c ****       \arg        FMC_TOERR: timeout error
 263:Drivers/GD32_F470_STD_Driver/Source/gd32f4xx_fmc.c **** */
 264:Drivers/GD32_F470_STD_Driver/Source/gd32f4xx_fmc.c **** fmc_state_enum fmc_bank0_erase(void)
 265:Drivers/GD32_F470_STD_Driver/Source/gd32f4xx_fmc.c **** {
 266:Drivers/GD32_F470_STD_Driver/Source/gd32f4xx_fmc.c ****     fmc_state_enum fmc_state = FMC_READY;
 267:Drivers/GD32_F470_STD_Driver/Source/gd32f4xx_fmc.c ****     /* wait for the FMC ready */
 268:Drivers/GD32_F470_STD_Driver/Source/gd32f4xx_fmc.c ****     fmc_state = fmc_ready_wait(FMC_TIMEOUT_COUNT);
 269:Drivers/GD32_F470_STD_Driver/Source/gd32f4xx_fmc.c **** 
 270:Drivers/GD32_F470_STD_Driver/Source/gd32f4xx_fmc.c ****     if(FMC_READY == fmc_state) {
 271:Drivers/GD32_F470_STD_Driver/Source/gd32f4xx_fmc.c ****         /* start FMC bank0 erase */
 272:Drivers/GD32_F470_STD_Driver/Source/gd32f4xx_fmc.c ****         FMC_CTL |= FMC_CTL_MER0;
 273:Drivers/GD32_F470_STD_Driver/Source/gd32f4xx_fmc.c ****         FMC_CTL |= FMC_CTL_START;
 274:Drivers/GD32_F470_STD_Driver/Source/gd32f4xx_fmc.c **** 
 275:Drivers/GD32_F470_STD_Driver/Source/gd32f4xx_fmc.c ****         /* wait for the FMC ready */
 276:Drivers/GD32_F470_STD_Driver/Source/gd32f4xx_fmc.c ****         fmc_state = fmc_ready_wait(FMC_TIMEOUT_COUNT);
 277:Drivers/GD32_F470_STD_Driver/Source/gd32f4xx_fmc.c **** 
 278:Drivers/GD32_F470_STD_Driver/Source/gd32f4xx_fmc.c ****         /* reset the MER0 bit */
 279:Drivers/GD32_F470_STD_Driver/Source/gd32f4xx_fmc.c ****         FMC_CTL &= (~FMC_CTL_MER0);
 280:Drivers/GD32_F470_STD_Driver/Source/gd32f4xx_fmc.c ****     }
 281:Drivers/GD32_F470_STD_Driver/Source/gd32f4xx_fmc.c **** 
 282:Drivers/GD32_F470_STD_Driver/Source/gd32f4xx_fmc.c ****     /* return the fmc state */
 283:Drivers/GD32_F470_STD_Driver/Source/gd32f4xx_fmc.c ****     return fmc_state;
 284:Drivers/GD32_F470_STD_Driver/Source/gd32f4xx_fmc.c **** }
 285:Drivers/GD32_F470_STD_Driver/Source/gd32f4xx_fmc.c **** 
 286:Drivers/GD32_F470_STD_Driver/Source/gd32f4xx_fmc.c **** /*!
 287:Drivers/GD32_F470_STD_Driver/Source/gd32f4xx_fmc.c ****     \brief    FMC erase whole bank1
 288:Drivers/GD32_F470_STD_Driver/Source/gd32f4xx_fmc.c ****     \param[in]  none
 289:Drivers/GD32_F470_STD_Driver/Source/gd32f4xx_fmc.c ****     \param[out] none
 290:Drivers/GD32_F470_STD_Driver/Source/gd32f4xx_fmc.c ****     \retval     state of FMC
 291:Drivers/GD32_F470_STD_Driver/Source/gd32f4xx_fmc.c ****       \arg        FMC_READY: the operation has been completed
 292:Drivers/GD32_F470_STD_Driver/Source/gd32f4xx_fmc.c ****       \arg        FMC_BUSY: the operation is in progress
 293:Drivers/GD32_F470_STD_Driver/Source/gd32f4xx_fmc.c ****       \arg        FMC_RDDERR: read D-bus protection error
 294:Drivers/GD32_F470_STD_Driver/Source/gd32f4xx_fmc.c ****       \arg        FMC_PGSERR: program sequence error
 295:Drivers/GD32_F470_STD_Driver/Source/gd32f4xx_fmc.c ****       \arg        FMC_PGMERR: program size not match error
 296:Drivers/GD32_F470_STD_Driver/Source/gd32f4xx_fmc.c ****       \arg        FMC_WPERR: erase/program protection error
 297:Drivers/GD32_F470_STD_Driver/Source/gd32f4xx_fmc.c ****       \arg        FMC_OPERR: operation error
 298:Drivers/GD32_F470_STD_Driver/Source/gd32f4xx_fmc.c ****       \arg        FMC_TOERR: timeout error
 299:Drivers/GD32_F470_STD_Driver/Source/gd32f4xx_fmc.c **** */
 300:Drivers/GD32_F470_STD_Driver/Source/gd32f4xx_fmc.c **** fmc_state_enum fmc_bank1_erase(void)
 301:Drivers/GD32_F470_STD_Driver/Source/gd32f4xx_fmc.c **** {
 302:Drivers/GD32_F470_STD_Driver/Source/gd32f4xx_fmc.c ****     fmc_state_enum fmc_state = FMC_READY;
 303:Drivers/GD32_F470_STD_Driver/Source/gd32f4xx_fmc.c ****     /* wait for the FMC ready */
 304:Drivers/GD32_F470_STD_Driver/Source/gd32f4xx_fmc.c ****     fmc_state = fmc_ready_wait(FMC_TIMEOUT_COUNT);
 305:Drivers/GD32_F470_STD_Driver/Source/gd32f4xx_fmc.c **** 
 306:Drivers/GD32_F470_STD_Driver/Source/gd32f4xx_fmc.c ****     if(FMC_READY == fmc_state) {
 307:Drivers/GD32_F470_STD_Driver/Source/gd32f4xx_fmc.c ****         /* start FMC bank1 erase */
 308:Drivers/GD32_F470_STD_Driver/Source/gd32f4xx_fmc.c ****         FMC_CTL |= FMC_CTL_MER1;
 309:Drivers/GD32_F470_STD_Driver/Source/gd32f4xx_fmc.c ****         FMC_CTL |= FMC_CTL_START;
 310:Drivers/GD32_F470_STD_Driver/Source/gd32f4xx_fmc.c **** 
 311:Drivers/GD32_F470_STD_Driver/Source/gd32f4xx_fmc.c ****         /* wait for the FMC ready */
 312:Drivers/GD32_F470_STD_Driver/Source/gd32f4xx_fmc.c ****         fmc_state = fmc_ready_wait(FMC_TIMEOUT_COUNT);
 313:Drivers/GD32_F470_STD_Driver/Source/gd32f4xx_fmc.c **** 
 314:Drivers/GD32_F470_STD_Driver/Source/gd32f4xx_fmc.c ****         /* reset the MER1 bit */
 315:Drivers/GD32_F470_STD_Driver/Source/gd32f4xx_fmc.c ****         FMC_CTL &= (~FMC_CTL_MER1);
 316:Drivers/GD32_F470_STD_Driver/Source/gd32f4xx_fmc.c ****     }
 317:Drivers/GD32_F470_STD_Driver/Source/gd32f4xx_fmc.c **** 
 318:Drivers/GD32_F470_STD_Driver/Source/gd32f4xx_fmc.c ****     /* return the fmc state */
ARM GAS  /tmp/ccSpQgdi.s 			page 9


 319:Drivers/GD32_F470_STD_Driver/Source/gd32f4xx_fmc.c ****     return fmc_state;
 320:Drivers/GD32_F470_STD_Driver/Source/gd32f4xx_fmc.c **** }
 321:Drivers/GD32_F470_STD_Driver/Source/gd32f4xx_fmc.c **** 
 322:Drivers/GD32_F470_STD_Driver/Source/gd32f4xx_fmc.c **** /*!
 323:Drivers/GD32_F470_STD_Driver/Source/gd32f4xx_fmc.c ****     \brief    program a word at the corresponding address
 324:Drivers/GD32_F470_STD_Driver/Source/gd32f4xx_fmc.c ****     \param[in]  address: address to program
 325:Drivers/GD32_F470_STD_Driver/Source/gd32f4xx_fmc.c ****     \param[in]  data: word to program(0x00000000 - 0xFFFFFFFF)
 326:Drivers/GD32_F470_STD_Driver/Source/gd32f4xx_fmc.c ****     \param[out] none
 327:Drivers/GD32_F470_STD_Driver/Source/gd32f4xx_fmc.c ****     \retval     state of FMC
 328:Drivers/GD32_F470_STD_Driver/Source/gd32f4xx_fmc.c ****       \arg        FMC_READY: the operation has been completed
 329:Drivers/GD32_F470_STD_Driver/Source/gd32f4xx_fmc.c ****       \arg        FMC_BUSY: the operation is in progress
 330:Drivers/GD32_F470_STD_Driver/Source/gd32f4xx_fmc.c ****       \arg        FMC_RDDERR: read D-bus protection error
 331:Drivers/GD32_F470_STD_Driver/Source/gd32f4xx_fmc.c ****       \arg        FMC_PGSERR: program sequence error
 332:Drivers/GD32_F470_STD_Driver/Source/gd32f4xx_fmc.c ****       \arg        FMC_PGMERR: program size not match error
 333:Drivers/GD32_F470_STD_Driver/Source/gd32f4xx_fmc.c ****       \arg        FMC_WPERR: erase/program protection error
 334:Drivers/GD32_F470_STD_Driver/Source/gd32f4xx_fmc.c ****       \arg        FMC_OPERR: operation error
 335:Drivers/GD32_F470_STD_Driver/Source/gd32f4xx_fmc.c ****       \arg        FMC_TOERR: timeout error
 336:Drivers/GD32_F470_STD_Driver/Source/gd32f4xx_fmc.c **** */
 337:Drivers/GD32_F470_STD_Driver/Source/gd32f4xx_fmc.c **** fmc_state_enum fmc_word_program(uint32_t address, uint32_t data)
 338:Drivers/GD32_F470_STD_Driver/Source/gd32f4xx_fmc.c **** {
 339:Drivers/GD32_F470_STD_Driver/Source/gd32f4xx_fmc.c ****     fmc_state_enum fmc_state = FMC_READY;
 340:Drivers/GD32_F470_STD_Driver/Source/gd32f4xx_fmc.c ****     /* wait for the FMC ready */
 341:Drivers/GD32_F470_STD_Driver/Source/gd32f4xx_fmc.c ****     fmc_state = fmc_ready_wait(FMC_TIMEOUT_COUNT);
 342:Drivers/GD32_F470_STD_Driver/Source/gd32f4xx_fmc.c **** 
 343:Drivers/GD32_F470_STD_Driver/Source/gd32f4xx_fmc.c ****     if(FMC_READY == fmc_state) {
 344:Drivers/GD32_F470_STD_Driver/Source/gd32f4xx_fmc.c ****         /* set the PG bit to start program */
 345:Drivers/GD32_F470_STD_Driver/Source/gd32f4xx_fmc.c ****         FMC_CTL &= ~FMC_CTL_PSZ;
 346:Drivers/GD32_F470_STD_Driver/Source/gd32f4xx_fmc.c ****         FMC_CTL |= CTL_PSZ_WORD;
 347:Drivers/GD32_F470_STD_Driver/Source/gd32f4xx_fmc.c ****         FMC_CTL |= FMC_CTL_PG;
 348:Drivers/GD32_F470_STD_Driver/Source/gd32f4xx_fmc.c **** 
 349:Drivers/GD32_F470_STD_Driver/Source/gd32f4xx_fmc.c ****         REG32(address) = data;
 350:Drivers/GD32_F470_STD_Driver/Source/gd32f4xx_fmc.c **** 
 351:Drivers/GD32_F470_STD_Driver/Source/gd32f4xx_fmc.c ****         /* wait for the FMC ready */
 352:Drivers/GD32_F470_STD_Driver/Source/gd32f4xx_fmc.c ****         fmc_state = fmc_ready_wait(FMC_TIMEOUT_COUNT);
 353:Drivers/GD32_F470_STD_Driver/Source/gd32f4xx_fmc.c **** 
 354:Drivers/GD32_F470_STD_Driver/Source/gd32f4xx_fmc.c ****         /* reset the PG bit */
 355:Drivers/GD32_F470_STD_Driver/Source/gd32f4xx_fmc.c ****         FMC_CTL &= ~FMC_CTL_PG;
 356:Drivers/GD32_F470_STD_Driver/Source/gd32f4xx_fmc.c ****     }
 357:Drivers/GD32_F470_STD_Driver/Source/gd32f4xx_fmc.c **** 
 358:Drivers/GD32_F470_STD_Driver/Source/gd32f4xx_fmc.c ****     /* return the FMC state */
 359:Drivers/GD32_F470_STD_Driver/Source/gd32f4xx_fmc.c ****     return fmc_state;
 360:Drivers/GD32_F470_STD_Driver/Source/gd32f4xx_fmc.c **** }
 361:Drivers/GD32_F470_STD_Driver/Source/gd32f4xx_fmc.c **** 
 362:Drivers/GD32_F470_STD_Driver/Source/gd32f4xx_fmc.c **** /*!
 363:Drivers/GD32_F470_STD_Driver/Source/gd32f4xx_fmc.c ****     \brief    program a half word at the corresponding address
 364:Drivers/GD32_F470_STD_Driver/Source/gd32f4xx_fmc.c ****     \param[in]  address: address to program
 365:Drivers/GD32_F470_STD_Driver/Source/gd32f4xx_fmc.c ****     \param[in]  data: halfword to program(0x0000 - 0xFFFF)
 366:Drivers/GD32_F470_STD_Driver/Source/gd32f4xx_fmc.c ****     \param[out] none
 367:Drivers/GD32_F470_STD_Driver/Source/gd32f4xx_fmc.c ****     \retval     state of FMC
 368:Drivers/GD32_F470_STD_Driver/Source/gd32f4xx_fmc.c ****       \arg        FMC_READY: the operation has been completed
 369:Drivers/GD32_F470_STD_Driver/Source/gd32f4xx_fmc.c ****       \arg        FMC_BUSY: the operation is in progress
 370:Drivers/GD32_F470_STD_Driver/Source/gd32f4xx_fmc.c ****       \arg        FMC_RDDERR: read D-bus protection error
 371:Drivers/GD32_F470_STD_Driver/Source/gd32f4xx_fmc.c ****       \arg        FMC_PGSERR: program sequence error
 372:Drivers/GD32_F470_STD_Driver/Source/gd32f4xx_fmc.c ****       \arg        FMC_PGMERR: program size not match error
 373:Drivers/GD32_F470_STD_Driver/Source/gd32f4xx_fmc.c ****       \arg        FMC_WPERR: erase/program protection error
 374:Drivers/GD32_F470_STD_Driver/Source/gd32f4xx_fmc.c ****       \arg        FMC_OPERR: operation error
 375:Drivers/GD32_F470_STD_Driver/Source/gd32f4xx_fmc.c ****       \arg        FMC_TOERR: timeout error
ARM GAS  /tmp/ccSpQgdi.s 			page 10


 376:Drivers/GD32_F470_STD_Driver/Source/gd32f4xx_fmc.c **** */
 377:Drivers/GD32_F470_STD_Driver/Source/gd32f4xx_fmc.c **** fmc_state_enum fmc_halfword_program(uint32_t address, uint16_t data)
 378:Drivers/GD32_F470_STD_Driver/Source/gd32f4xx_fmc.c **** {
 379:Drivers/GD32_F470_STD_Driver/Source/gd32f4xx_fmc.c ****     fmc_state_enum fmc_state = FMC_READY;
 380:Drivers/GD32_F470_STD_Driver/Source/gd32f4xx_fmc.c ****     /* wait for the FMC ready */
 381:Drivers/GD32_F470_STD_Driver/Source/gd32f4xx_fmc.c ****     fmc_state = fmc_ready_wait(FMC_TIMEOUT_COUNT);
 382:Drivers/GD32_F470_STD_Driver/Source/gd32f4xx_fmc.c **** 
 383:Drivers/GD32_F470_STD_Driver/Source/gd32f4xx_fmc.c ****     if(FMC_READY == fmc_state) {
 384:Drivers/GD32_F470_STD_Driver/Source/gd32f4xx_fmc.c ****         /* set the PG bit to start program */
 385:Drivers/GD32_F470_STD_Driver/Source/gd32f4xx_fmc.c ****         FMC_CTL &= ~FMC_CTL_PSZ;
 386:Drivers/GD32_F470_STD_Driver/Source/gd32f4xx_fmc.c ****         FMC_CTL |= CTL_PSZ_HALF_WORD;
 387:Drivers/GD32_F470_STD_Driver/Source/gd32f4xx_fmc.c ****         FMC_CTL |= FMC_CTL_PG;
 388:Drivers/GD32_F470_STD_Driver/Source/gd32f4xx_fmc.c **** 
 389:Drivers/GD32_F470_STD_Driver/Source/gd32f4xx_fmc.c ****         REG16(address) = data;
 390:Drivers/GD32_F470_STD_Driver/Source/gd32f4xx_fmc.c **** 
 391:Drivers/GD32_F470_STD_Driver/Source/gd32f4xx_fmc.c ****         /* wait for the FMC ready */
 392:Drivers/GD32_F470_STD_Driver/Source/gd32f4xx_fmc.c ****         fmc_state = fmc_ready_wait(FMC_TIMEOUT_COUNT);
 393:Drivers/GD32_F470_STD_Driver/Source/gd32f4xx_fmc.c **** 
 394:Drivers/GD32_F470_STD_Driver/Source/gd32f4xx_fmc.c ****         /* reset the PG bit */
 395:Drivers/GD32_F470_STD_Driver/Source/gd32f4xx_fmc.c ****         FMC_CTL &= ~FMC_CTL_PG;
 396:Drivers/GD32_F470_STD_Driver/Source/gd32f4xx_fmc.c ****     }
 397:Drivers/GD32_F470_STD_Driver/Source/gd32f4xx_fmc.c **** 
 398:Drivers/GD32_F470_STD_Driver/Source/gd32f4xx_fmc.c ****     /* return the FMC state */
 399:Drivers/GD32_F470_STD_Driver/Source/gd32f4xx_fmc.c ****     return fmc_state;
 400:Drivers/GD32_F470_STD_Driver/Source/gd32f4xx_fmc.c **** }
 401:Drivers/GD32_F470_STD_Driver/Source/gd32f4xx_fmc.c **** 
 402:Drivers/GD32_F470_STD_Driver/Source/gd32f4xx_fmc.c **** /*!
 403:Drivers/GD32_F470_STD_Driver/Source/gd32f4xx_fmc.c ****     \brief    program a byte at the corresponding address
 404:Drivers/GD32_F470_STD_Driver/Source/gd32f4xx_fmc.c ****     \param[in]  address: address to program
 405:Drivers/GD32_F470_STD_Driver/Source/gd32f4xx_fmc.c ****     \param[in]  data: byte to program(0x00 - 0xFF)
 406:Drivers/GD32_F470_STD_Driver/Source/gd32f4xx_fmc.c ****     \param[out] none
 407:Drivers/GD32_F470_STD_Driver/Source/gd32f4xx_fmc.c ****     \retval     state of FMC
 408:Drivers/GD32_F470_STD_Driver/Source/gd32f4xx_fmc.c ****       \arg        FMC_READY: the operation has been completed
 409:Drivers/GD32_F470_STD_Driver/Source/gd32f4xx_fmc.c ****       \arg        FMC_BUSY: the operation is in progress
 410:Drivers/GD32_F470_STD_Driver/Source/gd32f4xx_fmc.c ****       \arg        FMC_RDDERR: read D-bus protection error
 411:Drivers/GD32_F470_STD_Driver/Source/gd32f4xx_fmc.c ****       \arg        FMC_PGSERR: program sequence error
 412:Drivers/GD32_F470_STD_Driver/Source/gd32f4xx_fmc.c ****       \arg        FMC_PGMERR: program size not match error
 413:Drivers/GD32_F470_STD_Driver/Source/gd32f4xx_fmc.c ****       \arg        FMC_WPERR: erase/program protection error
 414:Drivers/GD32_F470_STD_Driver/Source/gd32f4xx_fmc.c ****       \arg        FMC_OPERR: operation error
 415:Drivers/GD32_F470_STD_Driver/Source/gd32f4xx_fmc.c ****       \arg        FMC_TOERR: timeout error
 416:Drivers/GD32_F470_STD_Driver/Source/gd32f4xx_fmc.c **** */
 417:Drivers/GD32_F470_STD_Driver/Source/gd32f4xx_fmc.c **** fmc_state_enum fmc_byte_program(uint32_t address, uint8_t data)
 418:Drivers/GD32_F470_STD_Driver/Source/gd32f4xx_fmc.c **** {
 419:Drivers/GD32_F470_STD_Driver/Source/gd32f4xx_fmc.c ****     fmc_state_enum fmc_state = FMC_READY;
 420:Drivers/GD32_F470_STD_Driver/Source/gd32f4xx_fmc.c ****     /* wait for the FMC ready */
 421:Drivers/GD32_F470_STD_Driver/Source/gd32f4xx_fmc.c ****     fmc_state = fmc_ready_wait(FMC_TIMEOUT_COUNT);
 422:Drivers/GD32_F470_STD_Driver/Source/gd32f4xx_fmc.c **** 
 423:Drivers/GD32_F470_STD_Driver/Source/gd32f4xx_fmc.c ****     if(FMC_READY == fmc_state) {
 424:Drivers/GD32_F470_STD_Driver/Source/gd32f4xx_fmc.c ****         /* set the PG bit to start program */
 425:Drivers/GD32_F470_STD_Driver/Source/gd32f4xx_fmc.c ****         FMC_CTL &= ~FMC_CTL_PSZ;
 426:Drivers/GD32_F470_STD_Driver/Source/gd32f4xx_fmc.c ****         FMC_CTL |= CTL_PSZ_BYTE;
 427:Drivers/GD32_F470_STD_Driver/Source/gd32f4xx_fmc.c ****         FMC_CTL |= FMC_CTL_PG;
 428:Drivers/GD32_F470_STD_Driver/Source/gd32f4xx_fmc.c **** 
 429:Drivers/GD32_F470_STD_Driver/Source/gd32f4xx_fmc.c ****         REG8(address) = data;
 430:Drivers/GD32_F470_STD_Driver/Source/gd32f4xx_fmc.c **** 
 431:Drivers/GD32_F470_STD_Driver/Source/gd32f4xx_fmc.c ****         /* wait for the FMC ready */
 432:Drivers/GD32_F470_STD_Driver/Source/gd32f4xx_fmc.c ****         fmc_state = fmc_ready_wait(FMC_TIMEOUT_COUNT);
ARM GAS  /tmp/ccSpQgdi.s 			page 11


 433:Drivers/GD32_F470_STD_Driver/Source/gd32f4xx_fmc.c **** 
 434:Drivers/GD32_F470_STD_Driver/Source/gd32f4xx_fmc.c ****         /* reset the PG bit */
 435:Drivers/GD32_F470_STD_Driver/Source/gd32f4xx_fmc.c ****         FMC_CTL &= ~FMC_CTL_PG;
 436:Drivers/GD32_F470_STD_Driver/Source/gd32f4xx_fmc.c ****     }
 437:Drivers/GD32_F470_STD_Driver/Source/gd32f4xx_fmc.c **** 
 438:Drivers/GD32_F470_STD_Driver/Source/gd32f4xx_fmc.c ****     /* return the FMC state */
 439:Drivers/GD32_F470_STD_Driver/Source/gd32f4xx_fmc.c ****     return fmc_state;
 440:Drivers/GD32_F470_STD_Driver/Source/gd32f4xx_fmc.c **** }
 441:Drivers/GD32_F470_STD_Driver/Source/gd32f4xx_fmc.c **** 
 442:Drivers/GD32_F470_STD_Driver/Source/gd32f4xx_fmc.c **** /*!
 443:Drivers/GD32_F470_STD_Driver/Source/gd32f4xx_fmc.c ****     \brief    unlock the option byte operation
 444:Drivers/GD32_F470_STD_Driver/Source/gd32f4xx_fmc.c ****     \param[in]  none
 445:Drivers/GD32_F470_STD_Driver/Source/gd32f4xx_fmc.c ****     \param[out] none
 446:Drivers/GD32_F470_STD_Driver/Source/gd32f4xx_fmc.c ****     \retval     none
 447:Drivers/GD32_F470_STD_Driver/Source/gd32f4xx_fmc.c **** */
 448:Drivers/GD32_F470_STD_Driver/Source/gd32f4xx_fmc.c **** void ob_unlock(void)
 449:Drivers/GD32_F470_STD_Driver/Source/gd32f4xx_fmc.c **** {
 142              		.loc 1 449 1 is_stmt 1 view -0
 143              		.cfi_startproc
 144              		@ args = 0, pretend = 0, frame = 0
 145              		@ frame_needed = 0, uses_anonymous_args = 0
 146              		@ link register save eliminated.
 450:Drivers/GD32_F470_STD_Driver/Source/gd32f4xx_fmc.c ****     if(RESET != (FMC_OBCTL0 & FMC_OBCTL0_OB_LK)) {
 147              		.loc 1 450 5 view .LVU25
 148              		.loc 1 450 18 is_stmt 0 view .LVU26
 149 0000 074B     		ldr	r3, .L14
 150 0002 D3F8143C 		ldr	r3, [r3, #3092]
 151              		.loc 1 450 7 view .LVU27
 152 0006 13F0010F 		tst	r3, #1
 153 000a 07D0     		beq	.L12
 451:Drivers/GD32_F470_STD_Driver/Source/gd32f4xx_fmc.c ****         /* write the FMC key */
 452:Drivers/GD32_F470_STD_Driver/Source/gd32f4xx_fmc.c ****         FMC_OBKEY = OB_UNLOCK_KEY0;
 154              		.loc 1 452 9 is_stmt 1 view .LVU28
 155              		.loc 1 452 19 is_stmt 0 view .LVU29
 156 000c 044B     		ldr	r3, .L14
 157 000e 054A     		ldr	r2, .L14+4
 158 0010 C3F8082C 		str	r2, [r3, #3080]
 453:Drivers/GD32_F470_STD_Driver/Source/gd32f4xx_fmc.c ****         FMC_OBKEY = OB_UNLOCK_KEY1;
 159              		.loc 1 453 9 is_stmt 1 view .LVU30
 160              		.loc 1 453 19 is_stmt 0 view .LVU31
 161 0014 02F14432 		add	r2, r2, #1145324612
 162 0018 C3F8082C 		str	r2, [r3, #3080]
 163              	.L12:
 454:Drivers/GD32_F470_STD_Driver/Source/gd32f4xx_fmc.c ****     }
 455:Drivers/GD32_F470_STD_Driver/Source/gd32f4xx_fmc.c **** }
 164              		.loc 1 455 1 view .LVU32
 165 001c 7047     		bx	lr
 166              	.L15:
 167 001e 00BF     		.align	2
 168              	.L14:
 169 0020 00300240 		.word	1073885184
 170 0024 3B2A1908 		.word	135866939
 171              		.cfi_endproc
 172              	.LFE127:
 174              		.section	.text.ob_lock,"ax",%progbits
 175              		.align	1
 176              		.global	ob_lock
ARM GAS  /tmp/ccSpQgdi.s 			page 12


 177              		.syntax unified
 178              		.thumb
 179              		.thumb_func
 181              	ob_lock:
 182              	.LFB128:
 456:Drivers/GD32_F470_STD_Driver/Source/gd32f4xx_fmc.c **** 
 457:Drivers/GD32_F470_STD_Driver/Source/gd32f4xx_fmc.c **** /*!
 458:Drivers/GD32_F470_STD_Driver/Source/gd32f4xx_fmc.c ****     \brief    lock the option byte operation
 459:Drivers/GD32_F470_STD_Driver/Source/gd32f4xx_fmc.c ****     \param[in]  none
 460:Drivers/GD32_F470_STD_Driver/Source/gd32f4xx_fmc.c ****     \param[out] none
 461:Drivers/GD32_F470_STD_Driver/Source/gd32f4xx_fmc.c ****     \retval     none
 462:Drivers/GD32_F470_STD_Driver/Source/gd32f4xx_fmc.c **** */
 463:Drivers/GD32_F470_STD_Driver/Source/gd32f4xx_fmc.c **** void ob_lock(void)
 464:Drivers/GD32_F470_STD_Driver/Source/gd32f4xx_fmc.c **** {
 183              		.loc 1 464 1 is_stmt 1 view -0
 184              		.cfi_startproc
 185              		@ args = 0, pretend = 0, frame = 0
 186              		@ frame_needed = 0, uses_anonymous_args = 0
 187              		@ link register save eliminated.
 465:Drivers/GD32_F470_STD_Driver/Source/gd32f4xx_fmc.c ****     /* reset the OB_LK bit */
 466:Drivers/GD32_F470_STD_Driver/Source/gd32f4xx_fmc.c ****     FMC_OBCTL0 |= FMC_OBCTL0_OB_LK;
 188              		.loc 1 466 5 view .LVU34
 189              		.loc 1 466 16 is_stmt 0 view .LVU35
 190 0000 034A     		ldr	r2, .L17
 191 0002 D2F8143C 		ldr	r3, [r2, #3092]
 192 0006 43F00103 		orr	r3, r3, #1
 193 000a C2F8143C 		str	r3, [r2, #3092]
 467:Drivers/GD32_F470_STD_Driver/Source/gd32f4xx_fmc.c **** }
 194              		.loc 1 467 1 view .LVU36
 195 000e 7047     		bx	lr
 196              	.L18:
 197              		.align	2
 198              	.L17:
 199 0010 00300240 		.word	1073885184
 200              		.cfi_endproc
 201              	.LFE128:
 203              		.section	.text.ob_start,"ax",%progbits
 204              		.align	1
 205              		.global	ob_start
 206              		.syntax unified
 207              		.thumb
 208              		.thumb_func
 210              	ob_start:
 211              	.LFB129:
 468:Drivers/GD32_F470_STD_Driver/Source/gd32f4xx_fmc.c **** 
 469:Drivers/GD32_F470_STD_Driver/Source/gd32f4xx_fmc.c **** /*!
 470:Drivers/GD32_F470_STD_Driver/Source/gd32f4xx_fmc.c ****     \brief    send option byte change command
 471:Drivers/GD32_F470_STD_Driver/Source/gd32f4xx_fmc.c ****     \param[in]  none
 472:Drivers/GD32_F470_STD_Driver/Source/gd32f4xx_fmc.c ****     \param[out] none
 473:Drivers/GD32_F470_STD_Driver/Source/gd32f4xx_fmc.c ****     \retval     none
 474:Drivers/GD32_F470_STD_Driver/Source/gd32f4xx_fmc.c **** */
 475:Drivers/GD32_F470_STD_Driver/Source/gd32f4xx_fmc.c **** void ob_start(void)
 476:Drivers/GD32_F470_STD_Driver/Source/gd32f4xx_fmc.c **** {
 212              		.loc 1 476 1 is_stmt 1 view -0
 213              		.cfi_startproc
 214              		@ args = 0, pretend = 0, frame = 0
 215              		@ frame_needed = 0, uses_anonymous_args = 0
ARM GAS  /tmp/ccSpQgdi.s 			page 13


 216              		@ link register save eliminated.
 477:Drivers/GD32_F470_STD_Driver/Source/gd32f4xx_fmc.c ****     /* set the OB_START bit in OBCTL0 register */
 478:Drivers/GD32_F470_STD_Driver/Source/gd32f4xx_fmc.c ****     FMC_OBCTL0 |= FMC_OBCTL0_OB_START;
 217              		.loc 1 478 5 view .LVU38
 218              		.loc 1 478 16 is_stmt 0 view .LVU39
 219 0000 034A     		ldr	r2, .L20
 220 0002 D2F8143C 		ldr	r3, [r2, #3092]
 221 0006 43F00203 		orr	r3, r3, #2
 222 000a C2F8143C 		str	r3, [r2, #3092]
 479:Drivers/GD32_F470_STD_Driver/Source/gd32f4xx_fmc.c **** }
 223              		.loc 1 479 1 view .LVU40
 224 000e 7047     		bx	lr
 225              	.L21:
 226              		.align	2
 227              	.L20:
 228 0010 00300240 		.word	1073885184
 229              		.cfi_endproc
 230              	.LFE129:
 232              		.section	.text.ob_user_bor_threshold,"ax",%progbits
 233              		.align	1
 234              		.global	ob_user_bor_threshold
 235              		.syntax unified
 236              		.thumb
 237              		.thumb_func
 239              	ob_user_bor_threshold:
 240              	.LVL4:
 241              	.LFB137:
 480:Drivers/GD32_F470_STD_Driver/Source/gd32f4xx_fmc.c **** 
 481:Drivers/GD32_F470_STD_Driver/Source/gd32f4xx_fmc.c **** /*!
 482:Drivers/GD32_F470_STD_Driver/Source/gd32f4xx_fmc.c ****     \brief    erase option byte
 483:Drivers/GD32_F470_STD_Driver/Source/gd32f4xx_fmc.c ****     \param[in]  none
 484:Drivers/GD32_F470_STD_Driver/Source/gd32f4xx_fmc.c ****     \param[out] none
 485:Drivers/GD32_F470_STD_Driver/Source/gd32f4xx_fmc.c ****     \retval     none
 486:Drivers/GD32_F470_STD_Driver/Source/gd32f4xx_fmc.c **** */
 487:Drivers/GD32_F470_STD_Driver/Source/gd32f4xx_fmc.c **** void ob_erase(void)
 488:Drivers/GD32_F470_STD_Driver/Source/gd32f4xx_fmc.c **** {
 489:Drivers/GD32_F470_STD_Driver/Source/gd32f4xx_fmc.c ****     uint32_t reg, reg1;
 490:Drivers/GD32_F470_STD_Driver/Source/gd32f4xx_fmc.c ****     fmc_state_enum fmc_state = FMC_READY;
 491:Drivers/GD32_F470_STD_Driver/Source/gd32f4xx_fmc.c ****     /* wait for the FMC ready */
 492:Drivers/GD32_F470_STD_Driver/Source/gd32f4xx_fmc.c ****     fmc_state = fmc_ready_wait(FMC_TIMEOUT_COUNT);
 493:Drivers/GD32_F470_STD_Driver/Source/gd32f4xx_fmc.c ****     reg = FMC_OBCTL0;
 494:Drivers/GD32_F470_STD_Driver/Source/gd32f4xx_fmc.c ****     reg1 = FMC_OBCTL1;
 495:Drivers/GD32_F470_STD_Driver/Source/gd32f4xx_fmc.c **** 
 496:Drivers/GD32_F470_STD_Driver/Source/gd32f4xx_fmc.c ****     if(FMC_READY == fmc_state) {
 497:Drivers/GD32_F470_STD_Driver/Source/gd32f4xx_fmc.c **** 
 498:Drivers/GD32_F470_STD_Driver/Source/gd32f4xx_fmc.c ****         /* reset the OB_FWDGT, OB_DEEPSLEEP and OB_STDBY, set according to ob_fwdgt ,ob_deepsleep a
 499:Drivers/GD32_F470_STD_Driver/Source/gd32f4xx_fmc.c ****         reg |= (FMC_OBCTL0_NWDG_HW | FMC_OBCTL0_NRST_DPSLP | FMC_OBCTL0_NRST_STDBY);
 500:Drivers/GD32_F470_STD_Driver/Source/gd32f4xx_fmc.c ****         /* reset the BOR level */
 501:Drivers/GD32_F470_STD_Driver/Source/gd32f4xx_fmc.c ****         reg |= FMC_OBCTL0_BOR_TH;
 502:Drivers/GD32_F470_STD_Driver/Source/gd32f4xx_fmc.c ****         /* reset option byte boot bank value */
 503:Drivers/GD32_F470_STD_Driver/Source/gd32f4xx_fmc.c ****         reg &= ~FMC_OBCTL0_BB;
 504:Drivers/GD32_F470_STD_Driver/Source/gd32f4xx_fmc.c ****         /* reset option byte dbs value */
 505:Drivers/GD32_F470_STD_Driver/Source/gd32f4xx_fmc.c ****         reg &= ~FMC_OBCTL0_DBS;
 506:Drivers/GD32_F470_STD_Driver/Source/gd32f4xx_fmc.c **** 
 507:Drivers/GD32_F470_STD_Driver/Source/gd32f4xx_fmc.c ****         /* reset drp and wp value */
 508:Drivers/GD32_F470_STD_Driver/Source/gd32f4xx_fmc.c ****         reg |= FMC_OBCTL0_WP0;
 509:Drivers/GD32_F470_STD_Driver/Source/gd32f4xx_fmc.c ****         reg &= (~FMC_OBCTL0_DRP);
ARM GAS  /tmp/ccSpQgdi.s 			page 14


 510:Drivers/GD32_F470_STD_Driver/Source/gd32f4xx_fmc.c ****         FMC_OBCTL0 = reg;
 511:Drivers/GD32_F470_STD_Driver/Source/gd32f4xx_fmc.c **** 
 512:Drivers/GD32_F470_STD_Driver/Source/gd32f4xx_fmc.c ****         reg1 |= FMC_OBCTL1_WP1;
 513:Drivers/GD32_F470_STD_Driver/Source/gd32f4xx_fmc.c ****         FMC_OBCTL1 = reg1;
 514:Drivers/GD32_F470_STD_Driver/Source/gd32f4xx_fmc.c **** 
 515:Drivers/GD32_F470_STD_Driver/Source/gd32f4xx_fmc.c ****         FMC_OBCTL0 = reg;
 516:Drivers/GD32_F470_STD_Driver/Source/gd32f4xx_fmc.c ****     }
 517:Drivers/GD32_F470_STD_Driver/Source/gd32f4xx_fmc.c **** }
 518:Drivers/GD32_F470_STD_Driver/Source/gd32f4xx_fmc.c **** 
 519:Drivers/GD32_F470_STD_Driver/Source/gd32f4xx_fmc.c **** /*!
 520:Drivers/GD32_F470_STD_Driver/Source/gd32f4xx_fmc.c ****     \brief    enable write protection
 521:Drivers/GD32_F470_STD_Driver/Source/gd32f4xx_fmc.c ****     \param[in]  ob_wp: specify sector to be write protected
 522:Drivers/GD32_F470_STD_Driver/Source/gd32f4xx_fmc.c ****                 one or more parameters can be selected which are shown as below:
 523:Drivers/GD32_F470_STD_Driver/Source/gd32f4xx_fmc.c ****       \arg        OB_WP_x(x=0..22):sector x(x = 0,1,2...22)
 524:Drivers/GD32_F470_STD_Driver/Source/gd32f4xx_fmc.c ****       \arg        OB_WP_23_27: sector23~27
 525:Drivers/GD32_F470_STD_Driver/Source/gd32f4xx_fmc.c ****       \arg        OB_WP_ALL: all sector
 526:Drivers/GD32_F470_STD_Driver/Source/gd32f4xx_fmc.c ****     \param[out] none
 527:Drivers/GD32_F470_STD_Driver/Source/gd32f4xx_fmc.c ****     \retval     SUCCESS or ERROR
 528:Drivers/GD32_F470_STD_Driver/Source/gd32f4xx_fmc.c **** */
 529:Drivers/GD32_F470_STD_Driver/Source/gd32f4xx_fmc.c **** ErrStatus ob_write_protection_enable(uint32_t ob_wp)
 530:Drivers/GD32_F470_STD_Driver/Source/gd32f4xx_fmc.c **** {
 531:Drivers/GD32_F470_STD_Driver/Source/gd32f4xx_fmc.c ****     uint32_t reg0 = FMC_OBCTL0;
 532:Drivers/GD32_F470_STD_Driver/Source/gd32f4xx_fmc.c ****     uint32_t reg1 = FMC_OBCTL1;
 533:Drivers/GD32_F470_STD_Driver/Source/gd32f4xx_fmc.c ****     fmc_state_enum fmc_state = FMC_READY;
 534:Drivers/GD32_F470_STD_Driver/Source/gd32f4xx_fmc.c ****     if(RESET != (FMC_OBCTL0 & FMC_OBCTL0_DRP)) {
 535:Drivers/GD32_F470_STD_Driver/Source/gd32f4xx_fmc.c ****         return ERROR;
 536:Drivers/GD32_F470_STD_Driver/Source/gd32f4xx_fmc.c ****     }
 537:Drivers/GD32_F470_STD_Driver/Source/gd32f4xx_fmc.c ****     /* wait for the FMC ready */
 538:Drivers/GD32_F470_STD_Driver/Source/gd32f4xx_fmc.c ****     fmc_state = fmc_ready_wait(FMC_TIMEOUT_COUNT);
 539:Drivers/GD32_F470_STD_Driver/Source/gd32f4xx_fmc.c **** 
 540:Drivers/GD32_F470_STD_Driver/Source/gd32f4xx_fmc.c ****     if(FMC_READY == fmc_state) {
 541:Drivers/GD32_F470_STD_Driver/Source/gd32f4xx_fmc.c ****         reg0 &= (~((uint32_t)ob_wp << 16U));
 542:Drivers/GD32_F470_STD_Driver/Source/gd32f4xx_fmc.c ****         reg1 &= (~(ob_wp & 0xFFFF0000U));
 543:Drivers/GD32_F470_STD_Driver/Source/gd32f4xx_fmc.c ****         FMC_OBCTL0 = reg0;
 544:Drivers/GD32_F470_STD_Driver/Source/gd32f4xx_fmc.c ****         FMC_OBCTL1 = reg1;
 545:Drivers/GD32_F470_STD_Driver/Source/gd32f4xx_fmc.c **** 
 546:Drivers/GD32_F470_STD_Driver/Source/gd32f4xx_fmc.c ****         return SUCCESS;
 547:Drivers/GD32_F470_STD_Driver/Source/gd32f4xx_fmc.c ****     } else {
 548:Drivers/GD32_F470_STD_Driver/Source/gd32f4xx_fmc.c ****         return ERROR;
 549:Drivers/GD32_F470_STD_Driver/Source/gd32f4xx_fmc.c ****     }
 550:Drivers/GD32_F470_STD_Driver/Source/gd32f4xx_fmc.c **** }
 551:Drivers/GD32_F470_STD_Driver/Source/gd32f4xx_fmc.c **** 
 552:Drivers/GD32_F470_STD_Driver/Source/gd32f4xx_fmc.c **** /*!
 553:Drivers/GD32_F470_STD_Driver/Source/gd32f4xx_fmc.c ****     \brief    disable write protection
 554:Drivers/GD32_F470_STD_Driver/Source/gd32f4xx_fmc.c ****     \param[in]  ob_wp: specify sector to be write protected
 555:Drivers/GD32_F470_STD_Driver/Source/gd32f4xx_fmc.c ****                 one or more parameters can be selected which are shown as below:
 556:Drivers/GD32_F470_STD_Driver/Source/gd32f4xx_fmc.c ****       \arg        OB_WP_x(x=0..22):sector x(x = 0,1,2...22)
 557:Drivers/GD32_F470_STD_Driver/Source/gd32f4xx_fmc.c ****       \arg        OB_WP_23_27: sector23~27
 558:Drivers/GD32_F470_STD_Driver/Source/gd32f4xx_fmc.c ****       \arg        OB_WP_ALL: all sector
 559:Drivers/GD32_F470_STD_Driver/Source/gd32f4xx_fmc.c ****     \param[out] none
 560:Drivers/GD32_F470_STD_Driver/Source/gd32f4xx_fmc.c ****     \retval     SUCCESS or ERROR
 561:Drivers/GD32_F470_STD_Driver/Source/gd32f4xx_fmc.c **** */
 562:Drivers/GD32_F470_STD_Driver/Source/gd32f4xx_fmc.c **** ErrStatus ob_write_protection_disable(uint32_t ob_wp)
 563:Drivers/GD32_F470_STD_Driver/Source/gd32f4xx_fmc.c **** {
 564:Drivers/GD32_F470_STD_Driver/Source/gd32f4xx_fmc.c ****     uint32_t reg0 = FMC_OBCTL0;
 565:Drivers/GD32_F470_STD_Driver/Source/gd32f4xx_fmc.c ****     uint32_t reg1 = FMC_OBCTL1;
 566:Drivers/GD32_F470_STD_Driver/Source/gd32f4xx_fmc.c ****     fmc_state_enum fmc_state = FMC_READY;
ARM GAS  /tmp/ccSpQgdi.s 			page 15


 567:Drivers/GD32_F470_STD_Driver/Source/gd32f4xx_fmc.c ****     if(RESET != (FMC_OBCTL0 & FMC_OBCTL0_DRP)) {
 568:Drivers/GD32_F470_STD_Driver/Source/gd32f4xx_fmc.c ****         return ERROR;
 569:Drivers/GD32_F470_STD_Driver/Source/gd32f4xx_fmc.c ****     }
 570:Drivers/GD32_F470_STD_Driver/Source/gd32f4xx_fmc.c ****     /* wait for the FMC ready */
 571:Drivers/GD32_F470_STD_Driver/Source/gd32f4xx_fmc.c ****     fmc_state = fmc_ready_wait(FMC_TIMEOUT_COUNT);
 572:Drivers/GD32_F470_STD_Driver/Source/gd32f4xx_fmc.c **** 
 573:Drivers/GD32_F470_STD_Driver/Source/gd32f4xx_fmc.c ****     if(FMC_READY == fmc_state) {
 574:Drivers/GD32_F470_STD_Driver/Source/gd32f4xx_fmc.c ****         reg0 |= ((uint32_t)ob_wp << 16U);
 575:Drivers/GD32_F470_STD_Driver/Source/gd32f4xx_fmc.c ****         reg1 |= (ob_wp & 0xFFFF0000U);
 576:Drivers/GD32_F470_STD_Driver/Source/gd32f4xx_fmc.c ****         FMC_OBCTL0 = reg0;
 577:Drivers/GD32_F470_STD_Driver/Source/gd32f4xx_fmc.c ****         FMC_OBCTL1 = reg1;
 578:Drivers/GD32_F470_STD_Driver/Source/gd32f4xx_fmc.c **** 
 579:Drivers/GD32_F470_STD_Driver/Source/gd32f4xx_fmc.c ****         return SUCCESS;
 580:Drivers/GD32_F470_STD_Driver/Source/gd32f4xx_fmc.c ****     } else {
 581:Drivers/GD32_F470_STD_Driver/Source/gd32f4xx_fmc.c ****         return ERROR;
 582:Drivers/GD32_F470_STD_Driver/Source/gd32f4xx_fmc.c ****     }
 583:Drivers/GD32_F470_STD_Driver/Source/gd32f4xx_fmc.c **** }
 584:Drivers/GD32_F470_STD_Driver/Source/gd32f4xx_fmc.c **** 
 585:Drivers/GD32_F470_STD_Driver/Source/gd32f4xx_fmc.c **** /*!
 586:Drivers/GD32_F470_STD_Driver/Source/gd32f4xx_fmc.c ****     \brief    enable erase/program protection and D-bus read protection
 587:Drivers/GD32_F470_STD_Driver/Source/gd32f4xx_fmc.c ****     \param[in]  ob_drp: enable the WPx bits used as erase/program protection and D-bus read protect
 588:Drivers/GD32_F470_STD_Driver/Source/gd32f4xx_fmc.c ****                 one or more parameters can be selected which are shown as below:
 589:Drivers/GD32_F470_STD_Driver/Source/gd32f4xx_fmc.c ****       \arg        OB_DRP_x(x=0..22): sector x(x = 0,1,2...22)
 590:Drivers/GD32_F470_STD_Driver/Source/gd32f4xx_fmc.c ****       \arg        OB_DRP_23_27: sector23~27
 591:Drivers/GD32_F470_STD_Driver/Source/gd32f4xx_fmc.c ****       \arg        OB_DRP_ALL: all sector
 592:Drivers/GD32_F470_STD_Driver/Source/gd32f4xx_fmc.c ****     \param[out] none
 593:Drivers/GD32_F470_STD_Driver/Source/gd32f4xx_fmc.c ****     \retval     none
 594:Drivers/GD32_F470_STD_Driver/Source/gd32f4xx_fmc.c **** */
 595:Drivers/GD32_F470_STD_Driver/Source/gd32f4xx_fmc.c **** void ob_drp_enable(uint32_t ob_drp)
 596:Drivers/GD32_F470_STD_Driver/Source/gd32f4xx_fmc.c **** {
 597:Drivers/GD32_F470_STD_Driver/Source/gd32f4xx_fmc.c ****     uint32_t reg0 = FMC_OBCTL0;
 598:Drivers/GD32_F470_STD_Driver/Source/gd32f4xx_fmc.c ****     uint32_t reg1 = FMC_OBCTL1;
 599:Drivers/GD32_F470_STD_Driver/Source/gd32f4xx_fmc.c ****     fmc_state_enum fmc_state = FMC_READY;
 600:Drivers/GD32_F470_STD_Driver/Source/gd32f4xx_fmc.c ****     uint32_t drp_state = FMC_OBCTL0 & FMC_OBCTL0_DRP;
 601:Drivers/GD32_F470_STD_Driver/Source/gd32f4xx_fmc.c ****     uint32_t wp0_state = FMC_OBCTL0 & FMC_OBCTL0_WP0;
 602:Drivers/GD32_F470_STD_Driver/Source/gd32f4xx_fmc.c ****     uint32_t wp1_state = FMC_OBCTL1 & FMC_OBCTL1_WP1;
 603:Drivers/GD32_F470_STD_Driver/Source/gd32f4xx_fmc.c **** 
 604:Drivers/GD32_F470_STD_Driver/Source/gd32f4xx_fmc.c ****     /* wait for the FMC ready */
 605:Drivers/GD32_F470_STD_Driver/Source/gd32f4xx_fmc.c ****     fmc_state = fmc_ready_wait(FMC_TIMEOUT_COUNT);
 606:Drivers/GD32_F470_STD_Driver/Source/gd32f4xx_fmc.c **** 
 607:Drivers/GD32_F470_STD_Driver/Source/gd32f4xx_fmc.c ****     if(FMC_READY == fmc_state) {
 608:Drivers/GD32_F470_STD_Driver/Source/gd32f4xx_fmc.c ****         if(RESET == drp_state) {
 609:Drivers/GD32_F470_STD_Driver/Source/gd32f4xx_fmc.c ****             reg0 &= ~FMC_OBCTL0_WP0;
 610:Drivers/GD32_F470_STD_Driver/Source/gd32f4xx_fmc.c ****             reg1 &= ~FMC_OBCTL1_WP1;
 611:Drivers/GD32_F470_STD_Driver/Source/gd32f4xx_fmc.c ****         }
 612:Drivers/GD32_F470_STD_Driver/Source/gd32f4xx_fmc.c ****         reg0 |= ((uint32_t)ob_drp << 16U);
 613:Drivers/GD32_F470_STD_Driver/Source/gd32f4xx_fmc.c ****         reg0 |= FMC_OBCTL0_DRP;
 614:Drivers/GD32_F470_STD_Driver/Source/gd32f4xx_fmc.c ****         reg1 |= ((uint32_t)ob_drp & 0xFFFF0000U);
 615:Drivers/GD32_F470_STD_Driver/Source/gd32f4xx_fmc.c **** 
 616:Drivers/GD32_F470_STD_Driver/Source/gd32f4xx_fmc.c ****         FMC_OBCTL0 = reg0;
 617:Drivers/GD32_F470_STD_Driver/Source/gd32f4xx_fmc.c ****         FMC_OBCTL1 = reg1;
 618:Drivers/GD32_F470_STD_Driver/Source/gd32f4xx_fmc.c ****     }
 619:Drivers/GD32_F470_STD_Driver/Source/gd32f4xx_fmc.c **** }
 620:Drivers/GD32_F470_STD_Driver/Source/gd32f4xx_fmc.c **** 
 621:Drivers/GD32_F470_STD_Driver/Source/gd32f4xx_fmc.c **** /*!
 622:Drivers/GD32_F470_STD_Driver/Source/gd32f4xx_fmc.c ****     \brief    disable erase/program protection and D-bus read protection
 623:Drivers/GD32_F470_STD_Driver/Source/gd32f4xx_fmc.c ****     \param[in]  none
ARM GAS  /tmp/ccSpQgdi.s 			page 16


 624:Drivers/GD32_F470_STD_Driver/Source/gd32f4xx_fmc.c ****     \param[out] none
 625:Drivers/GD32_F470_STD_Driver/Source/gd32f4xx_fmc.c ****     \retval     none
 626:Drivers/GD32_F470_STD_Driver/Source/gd32f4xx_fmc.c **** */
 627:Drivers/GD32_F470_STD_Driver/Source/gd32f4xx_fmc.c **** void ob_drp_disable(void)
 628:Drivers/GD32_F470_STD_Driver/Source/gd32f4xx_fmc.c **** {
 629:Drivers/GD32_F470_STD_Driver/Source/gd32f4xx_fmc.c ****     uint32_t reg0 = FMC_OBCTL0;
 630:Drivers/GD32_F470_STD_Driver/Source/gd32f4xx_fmc.c ****     uint32_t reg1 = FMC_OBCTL1;
 631:Drivers/GD32_F470_STD_Driver/Source/gd32f4xx_fmc.c ****     fmc_state_enum fmc_state = FMC_READY;
 632:Drivers/GD32_F470_STD_Driver/Source/gd32f4xx_fmc.c ****     /* wait for the FMC ready */
 633:Drivers/GD32_F470_STD_Driver/Source/gd32f4xx_fmc.c ****     fmc_state = fmc_ready_wait(FMC_TIMEOUT_COUNT);
 634:Drivers/GD32_F470_STD_Driver/Source/gd32f4xx_fmc.c **** 
 635:Drivers/GD32_F470_STD_Driver/Source/gd32f4xx_fmc.c ****     if(FMC_READY == fmc_state) {
 636:Drivers/GD32_F470_STD_Driver/Source/gd32f4xx_fmc.c ****         if(((uint8_t)(reg0 >> 8U)) == (uint8_t)FMC_NSPC) {
 637:Drivers/GD32_F470_STD_Driver/Source/gd32f4xx_fmc.c ****             /* security protection should be set as low level protection before disable D-BUS read 
 638:Drivers/GD32_F470_STD_Driver/Source/gd32f4xx_fmc.c ****             reg0 &= ~FMC_OBCTL0_SPC;
 639:Drivers/GD32_F470_STD_Driver/Source/gd32f4xx_fmc.c ****             reg0 |= ((uint32_t)FMC_LSPC << 8U);
 640:Drivers/GD32_F470_STD_Driver/Source/gd32f4xx_fmc.c ****             FMC_OBCTL0 = reg0;
 641:Drivers/GD32_F470_STD_Driver/Source/gd32f4xx_fmc.c ****             /* set the OB_START bit in OBCTL0 register */
 642:Drivers/GD32_F470_STD_Driver/Source/gd32f4xx_fmc.c ****             FMC_OBCTL0 |= FMC_OBCTL0_OB_START;
 643:Drivers/GD32_F470_STD_Driver/Source/gd32f4xx_fmc.c ****         }
 644:Drivers/GD32_F470_STD_Driver/Source/gd32f4xx_fmc.c **** 
 645:Drivers/GD32_F470_STD_Driver/Source/gd32f4xx_fmc.c ****         /* it is necessary to disable the security protection at the same time when D-BUS read prot
 646:Drivers/GD32_F470_STD_Driver/Source/gd32f4xx_fmc.c ****         reg0 &= ~FMC_OBCTL0_SPC;
 647:Drivers/GD32_F470_STD_Driver/Source/gd32f4xx_fmc.c ****         reg0 |= ((uint32_t)FMC_NSPC << 8U);
 648:Drivers/GD32_F470_STD_Driver/Source/gd32f4xx_fmc.c ****         reg0 |= FMC_OBCTL0_WP0;
 649:Drivers/GD32_F470_STD_Driver/Source/gd32f4xx_fmc.c ****         reg0 &= (~FMC_OBCTL0_DRP);
 650:Drivers/GD32_F470_STD_Driver/Source/gd32f4xx_fmc.c ****         FMC_OBCTL0 = reg0;
 651:Drivers/GD32_F470_STD_Driver/Source/gd32f4xx_fmc.c **** 
 652:Drivers/GD32_F470_STD_Driver/Source/gd32f4xx_fmc.c ****         reg1 |= FMC_OBCTL1_WP1;
 653:Drivers/GD32_F470_STD_Driver/Source/gd32f4xx_fmc.c ****         FMC_OBCTL1 = reg1;
 654:Drivers/GD32_F470_STD_Driver/Source/gd32f4xx_fmc.c **** 
 655:Drivers/GD32_F470_STD_Driver/Source/gd32f4xx_fmc.c ****     }
 656:Drivers/GD32_F470_STD_Driver/Source/gd32f4xx_fmc.c **** }
 657:Drivers/GD32_F470_STD_Driver/Source/gd32f4xx_fmc.c **** 
 658:Drivers/GD32_F470_STD_Driver/Source/gd32f4xx_fmc.c **** /*!
 659:Drivers/GD32_F470_STD_Driver/Source/gd32f4xx_fmc.c ****     \brief    configure security protection level
 660:Drivers/GD32_F470_STD_Driver/Source/gd32f4xx_fmc.c ****     \param[in]  ob_spc: specify security protection level
 661:Drivers/GD32_F470_STD_Driver/Source/gd32f4xx_fmc.c ****                 only one parameter can be selected which is shown as below:
 662:Drivers/GD32_F470_STD_Driver/Source/gd32f4xx_fmc.c ****       \arg        FMC_NSPC: no security protection
 663:Drivers/GD32_F470_STD_Driver/Source/gd32f4xx_fmc.c ****       \arg        FMC_LSPC: low security protection
 664:Drivers/GD32_F470_STD_Driver/Source/gd32f4xx_fmc.c ****       \arg        FMC_HSPC: high security protection
 665:Drivers/GD32_F470_STD_Driver/Source/gd32f4xx_fmc.c ****     \param[out] none
 666:Drivers/GD32_F470_STD_Driver/Source/gd32f4xx_fmc.c ****     \retval     none
 667:Drivers/GD32_F470_STD_Driver/Source/gd32f4xx_fmc.c **** */
 668:Drivers/GD32_F470_STD_Driver/Source/gd32f4xx_fmc.c **** void ob_security_protection_config(uint8_t ob_spc)
 669:Drivers/GD32_F470_STD_Driver/Source/gd32f4xx_fmc.c **** {
 670:Drivers/GD32_F470_STD_Driver/Source/gd32f4xx_fmc.c ****     fmc_state_enum fmc_state = FMC_READY;
 671:Drivers/GD32_F470_STD_Driver/Source/gd32f4xx_fmc.c ****     /* wait for the FMC ready */
 672:Drivers/GD32_F470_STD_Driver/Source/gd32f4xx_fmc.c ****     fmc_state = fmc_ready_wait(FMC_TIMEOUT_COUNT);
 673:Drivers/GD32_F470_STD_Driver/Source/gd32f4xx_fmc.c **** 
 674:Drivers/GD32_F470_STD_Driver/Source/gd32f4xx_fmc.c ****     if(FMC_READY == fmc_state) {
 675:Drivers/GD32_F470_STD_Driver/Source/gd32f4xx_fmc.c ****         uint32_t reg;
 676:Drivers/GD32_F470_STD_Driver/Source/gd32f4xx_fmc.c **** 
 677:Drivers/GD32_F470_STD_Driver/Source/gd32f4xx_fmc.c ****         reg = FMC_OBCTL0;
 678:Drivers/GD32_F470_STD_Driver/Source/gd32f4xx_fmc.c ****         /* reset the OBCTL0_SPC, set according to ob_spc */
 679:Drivers/GD32_F470_STD_Driver/Source/gd32f4xx_fmc.c ****         reg &= ~FMC_OBCTL0_SPC;
 680:Drivers/GD32_F470_STD_Driver/Source/gd32f4xx_fmc.c ****         reg |= ((uint32_t)ob_spc << 8U);
ARM GAS  /tmp/ccSpQgdi.s 			page 17


 681:Drivers/GD32_F470_STD_Driver/Source/gd32f4xx_fmc.c ****         FMC_OBCTL0 = reg;
 682:Drivers/GD32_F470_STD_Driver/Source/gd32f4xx_fmc.c ****     }
 683:Drivers/GD32_F470_STD_Driver/Source/gd32f4xx_fmc.c **** }
 684:Drivers/GD32_F470_STD_Driver/Source/gd32f4xx_fmc.c **** 
 685:Drivers/GD32_F470_STD_Driver/Source/gd32f4xx_fmc.c **** /*!
 686:Drivers/GD32_F470_STD_Driver/Source/gd32f4xx_fmc.c ****     \brief    program the FMC user option byte
 687:Drivers/GD32_F470_STD_Driver/Source/gd32f4xx_fmc.c ****     \param[in]  ob_fwdgt: option byte watchdog value
 688:Drivers/GD32_F470_STD_Driver/Source/gd32f4xx_fmc.c ****                 only one parameter can be selected which is shown as below:
 689:Drivers/GD32_F470_STD_Driver/Source/gd32f4xx_fmc.c ****       \arg        OB_FWDGT_SW: software free watchdog
 690:Drivers/GD32_F470_STD_Driver/Source/gd32f4xx_fmc.c ****       \arg        OB_FWDGT_HW: hardware free watchdog
 691:Drivers/GD32_F470_STD_Driver/Source/gd32f4xx_fmc.c ****     \param[in]  ob_deepsleep: option byte deepsleep reset value
 692:Drivers/GD32_F470_STD_Driver/Source/gd32f4xx_fmc.c ****                 only one parameter can be selected which is shown as below:
 693:Drivers/GD32_F470_STD_Driver/Source/gd32f4xx_fmc.c ****       \arg        OB_DEEPSLEEP_NRST: no reset when entering deepsleep mode
 694:Drivers/GD32_F470_STD_Driver/Source/gd32f4xx_fmc.c ****       \arg        OB_DEEPSLEEP_RST: generate a reset instead of entering deepsleep mode
 695:Drivers/GD32_F470_STD_Driver/Source/gd32f4xx_fmc.c ****     \param[in]  ob_stdby:option byte standby reset value
 696:Drivers/GD32_F470_STD_Driver/Source/gd32f4xx_fmc.c ****                 only one parameter can be selected which is shown as below:
 697:Drivers/GD32_F470_STD_Driver/Source/gd32f4xx_fmc.c ****       \arg        OB_STDBY_NRST: no reset when entering standby mode
 698:Drivers/GD32_F470_STD_Driver/Source/gd32f4xx_fmc.c ****       \arg        OB_STDBY_RST: generate a reset instead of entering standby mode
 699:Drivers/GD32_F470_STD_Driver/Source/gd32f4xx_fmc.c ****     \param[out] none
 700:Drivers/GD32_F470_STD_Driver/Source/gd32f4xx_fmc.c ****     \retval     none
 701:Drivers/GD32_F470_STD_Driver/Source/gd32f4xx_fmc.c **** */
 702:Drivers/GD32_F470_STD_Driver/Source/gd32f4xx_fmc.c **** void ob_user_write(uint32_t ob_fwdgt, uint32_t ob_deepsleep, uint32_t ob_stdby)
 703:Drivers/GD32_F470_STD_Driver/Source/gd32f4xx_fmc.c **** {
 704:Drivers/GD32_F470_STD_Driver/Source/gd32f4xx_fmc.c ****     fmc_state_enum fmc_state = FMC_READY;
 705:Drivers/GD32_F470_STD_Driver/Source/gd32f4xx_fmc.c **** 
 706:Drivers/GD32_F470_STD_Driver/Source/gd32f4xx_fmc.c ****     /* wait for the FMC ready */
 707:Drivers/GD32_F470_STD_Driver/Source/gd32f4xx_fmc.c ****     fmc_state = fmc_ready_wait(FMC_TIMEOUT_COUNT);
 708:Drivers/GD32_F470_STD_Driver/Source/gd32f4xx_fmc.c **** 
 709:Drivers/GD32_F470_STD_Driver/Source/gd32f4xx_fmc.c ****     if(FMC_READY == fmc_state) {
 710:Drivers/GD32_F470_STD_Driver/Source/gd32f4xx_fmc.c ****         uint32_t reg;
 711:Drivers/GD32_F470_STD_Driver/Source/gd32f4xx_fmc.c **** 
 712:Drivers/GD32_F470_STD_Driver/Source/gd32f4xx_fmc.c ****         reg = FMC_OBCTL0;
 713:Drivers/GD32_F470_STD_Driver/Source/gd32f4xx_fmc.c ****         /* reset the OB_FWDGT, OB_DEEPSLEEP and OB_STDBY, set according to ob_fwdgt ,ob_deepsleep a
 714:Drivers/GD32_F470_STD_Driver/Source/gd32f4xx_fmc.c ****         reg &= ~(FMC_OBCTL0_NWDG_HW | FMC_OBCTL0_NRST_DPSLP | FMC_OBCTL0_NRST_STDBY);
 715:Drivers/GD32_F470_STD_Driver/Source/gd32f4xx_fmc.c ****         FMC_OBCTL0 = (reg | ob_fwdgt | ob_deepsleep | ob_stdby);
 716:Drivers/GD32_F470_STD_Driver/Source/gd32f4xx_fmc.c ****     }
 717:Drivers/GD32_F470_STD_Driver/Source/gd32f4xx_fmc.c **** }
 718:Drivers/GD32_F470_STD_Driver/Source/gd32f4xx_fmc.c **** 
 719:Drivers/GD32_F470_STD_Driver/Source/gd32f4xx_fmc.c **** /*!
 720:Drivers/GD32_F470_STD_Driver/Source/gd32f4xx_fmc.c ****     \brief    program the option byte BOR threshold value
 721:Drivers/GD32_F470_STD_Driver/Source/gd32f4xx_fmc.c ****     \param[in]  ob_bor_th: user option byte
 722:Drivers/GD32_F470_STD_Driver/Source/gd32f4xx_fmc.c ****                 only one parameter can be selected which is shown as below:
 723:Drivers/GD32_F470_STD_Driver/Source/gd32f4xx_fmc.c ****       \arg        OB_BOR_TH_VALUE3: BOR threshold value 3
 724:Drivers/GD32_F470_STD_Driver/Source/gd32f4xx_fmc.c ****       \arg        OB_BOR_TH_VALUE2: BOR threshold value 2
 725:Drivers/GD32_F470_STD_Driver/Source/gd32f4xx_fmc.c ****       \arg        OB_BOR_TH_VALUE1: BOR threshold value 1
 726:Drivers/GD32_F470_STD_Driver/Source/gd32f4xx_fmc.c ****       \arg        OB_BOR_TH_OFF: no BOR function
 727:Drivers/GD32_F470_STD_Driver/Source/gd32f4xx_fmc.c ****     \param[out] none
 728:Drivers/GD32_F470_STD_Driver/Source/gd32f4xx_fmc.c ****     \retval     none
 729:Drivers/GD32_F470_STD_Driver/Source/gd32f4xx_fmc.c **** */
 730:Drivers/GD32_F470_STD_Driver/Source/gd32f4xx_fmc.c **** void ob_user_bor_threshold(uint32_t ob_bor_th)
 731:Drivers/GD32_F470_STD_Driver/Source/gd32f4xx_fmc.c **** {
 242              		.loc 1 731 1 is_stmt 1 view -0
 243              		.cfi_startproc
 244              		@ args = 0, pretend = 0, frame = 0
 245              		@ frame_needed = 0, uses_anonymous_args = 0
 246              		@ link register save eliminated.
 732:Drivers/GD32_F470_STD_Driver/Source/gd32f4xx_fmc.c ****     uint32_t reg;
ARM GAS  /tmp/ccSpQgdi.s 			page 18


 247              		.loc 1 732 5 view .LVU42
 733:Drivers/GD32_F470_STD_Driver/Source/gd32f4xx_fmc.c **** 
 734:Drivers/GD32_F470_STD_Driver/Source/gd32f4xx_fmc.c ****     reg = FMC_OBCTL0;
 248              		.loc 1 734 5 view .LVU43
 249              		.loc 1 734 9 is_stmt 0 view .LVU44
 250 0000 044A     		ldr	r2, .L23
 251 0002 D2F8143C 		ldr	r3, [r2, #3092]
 252              	.LVL5:
 735:Drivers/GD32_F470_STD_Driver/Source/gd32f4xx_fmc.c ****     /* set the BOR level */
 736:Drivers/GD32_F470_STD_Driver/Source/gd32f4xx_fmc.c ****     reg &= ~FMC_OBCTL0_BOR_TH;
 253              		.loc 1 736 5 is_stmt 1 view .LVU45
 254              		.loc 1 736 9 is_stmt 0 view .LVU46
 255 0006 23F00C03 		bic	r3, r3, #12
 256              	.LVL6:
 737:Drivers/GD32_F470_STD_Driver/Source/gd32f4xx_fmc.c ****     FMC_OBCTL0 = (reg | ob_bor_th);
 257              		.loc 1 737 5 is_stmt 1 view .LVU47
 258              		.loc 1 737 23 is_stmt 0 view .LVU48
 259 000a 0343     		orrs	r3, r3, r0
 260              	.LVL7:
 261              		.loc 1 737 16 view .LVU49
 262 000c C2F8143C 		str	r3, [r2, #3092]
 738:Drivers/GD32_F470_STD_Driver/Source/gd32f4xx_fmc.c **** }
 263              		.loc 1 738 1 view .LVU50
 264 0010 7047     		bx	lr
 265              	.L24:
 266 0012 00BF     		.align	2
 267              	.L23:
 268 0014 00300240 		.word	1073885184
 269              		.cfi_endproc
 270              	.LFE137:
 272              		.section	.text.ob_boot_mode_config,"ax",%progbits
 273              		.align	1
 274              		.global	ob_boot_mode_config
 275              		.syntax unified
 276              		.thumb
 277              		.thumb_func
 279              	ob_boot_mode_config:
 280              	.LVL8:
 281              	.LFB138:
 739:Drivers/GD32_F470_STD_Driver/Source/gd32f4xx_fmc.c **** 
 740:Drivers/GD32_F470_STD_Driver/Source/gd32f4xx_fmc.c **** /*!
 741:Drivers/GD32_F470_STD_Driver/Source/gd32f4xx_fmc.c ****     \brief    configure the option byte boot bank value
 742:Drivers/GD32_F470_STD_Driver/Source/gd32f4xx_fmc.c ****     \param[in]  boot_mode: specifies the option byte boot bank value
 743:Drivers/GD32_F470_STD_Driver/Source/gd32f4xx_fmc.c ****                 only one parameter can be selected which is shown as below:
 744:Drivers/GD32_F470_STD_Driver/Source/gd32f4xx_fmc.c ****       \arg        OB_BB_DISABLE: boot from bank0
 745:Drivers/GD32_F470_STD_Driver/Source/gd32f4xx_fmc.c ****       \arg        OB_BB_ENABLE: boot from bank1 or bank0 if bank1 is void
 746:Drivers/GD32_F470_STD_Driver/Source/gd32f4xx_fmc.c ****     \param[out] none
 747:Drivers/GD32_F470_STD_Driver/Source/gd32f4xx_fmc.c ****     \retval     none
 748:Drivers/GD32_F470_STD_Driver/Source/gd32f4xx_fmc.c **** */
 749:Drivers/GD32_F470_STD_Driver/Source/gd32f4xx_fmc.c **** void ob_boot_mode_config(uint32_t boot_mode)
 750:Drivers/GD32_F470_STD_Driver/Source/gd32f4xx_fmc.c **** {
 282              		.loc 1 750 1 is_stmt 1 view -0
 283              		.cfi_startproc
 284              		@ args = 0, pretend = 0, frame = 0
 285              		@ frame_needed = 0, uses_anonymous_args = 0
 286              		@ link register save eliminated.
 751:Drivers/GD32_F470_STD_Driver/Source/gd32f4xx_fmc.c ****     uint32_t reg;
ARM GAS  /tmp/ccSpQgdi.s 			page 19


 287              		.loc 1 751 5 view .LVU52
 752:Drivers/GD32_F470_STD_Driver/Source/gd32f4xx_fmc.c **** 
 753:Drivers/GD32_F470_STD_Driver/Source/gd32f4xx_fmc.c ****     reg = FMC_OBCTL0;
 288              		.loc 1 753 5 view .LVU53
 289              		.loc 1 753 9 is_stmt 0 view .LVU54
 290 0000 044A     		ldr	r2, .L26
 291 0002 D2F8143C 		ldr	r3, [r2, #3092]
 292              	.LVL9:
 754:Drivers/GD32_F470_STD_Driver/Source/gd32f4xx_fmc.c ****     /* set option byte boot bank value */
 755:Drivers/GD32_F470_STD_Driver/Source/gd32f4xx_fmc.c ****     reg &= ~FMC_OBCTL0_BB;
 293              		.loc 1 755 5 is_stmt 1 view .LVU55
 294              		.loc 1 755 9 is_stmt 0 view .LVU56
 295 0006 23F01003 		bic	r3, r3, #16
 296              	.LVL10:
 756:Drivers/GD32_F470_STD_Driver/Source/gd32f4xx_fmc.c ****     FMC_OBCTL0 = (reg | boot_mode);
 297              		.loc 1 756 5 is_stmt 1 view .LVU57
 298              		.loc 1 756 23 is_stmt 0 view .LVU58
 299 000a 0343     		orrs	r3, r3, r0
 300              	.LVL11:
 301              		.loc 1 756 16 view .LVU59
 302 000c C2F8143C 		str	r3, [r2, #3092]
 757:Drivers/GD32_F470_STD_Driver/Source/gd32f4xx_fmc.c **** }
 303              		.loc 1 757 1 view .LVU60
 304 0010 7047     		bx	lr
 305              	.L27:
 306 0012 00BF     		.align	2
 307              	.L26:
 308 0014 00300240 		.word	1073885184
 309              		.cfi_endproc
 310              	.LFE138:
 312              		.section	.text.ob_user_get,"ax",%progbits
 313              		.align	1
 314              		.global	ob_user_get
 315              		.syntax unified
 316              		.thumb
 317              		.thumb_func
 319              	ob_user_get:
 320              	.LFB139:
 758:Drivers/GD32_F470_STD_Driver/Source/gd32f4xx_fmc.c **** 
 759:Drivers/GD32_F470_STD_Driver/Source/gd32f4xx_fmc.c **** /*!
 760:Drivers/GD32_F470_STD_Driver/Source/gd32f4xx_fmc.c ****     \brief    get the FMC user option byte
 761:Drivers/GD32_F470_STD_Driver/Source/gd32f4xx_fmc.c ****     \param[in]  none
 762:Drivers/GD32_F470_STD_Driver/Source/gd32f4xx_fmc.c ****     \param[out] none
 763:Drivers/GD32_F470_STD_Driver/Source/gd32f4xx_fmc.c ****     \retval     the FMC user option byte values: ob_fwdgt(Bit0), ob_deepsleep(Bit1), ob_stdby(Bit2)
 764:Drivers/GD32_F470_STD_Driver/Source/gd32f4xx_fmc.c **** */
 765:Drivers/GD32_F470_STD_Driver/Source/gd32f4xx_fmc.c **** uint8_t ob_user_get(void)
 766:Drivers/GD32_F470_STD_Driver/Source/gd32f4xx_fmc.c **** {
 321              		.loc 1 766 1 is_stmt 1 view -0
 322              		.cfi_startproc
 323              		@ args = 0, pretend = 0, frame = 0
 324              		@ frame_needed = 0, uses_anonymous_args = 0
 325              		@ link register save eliminated.
 767:Drivers/GD32_F470_STD_Driver/Source/gd32f4xx_fmc.c ****     return (uint8_t)((uint8_t)(FMC_OBCTL0 >> 5U) & 0x07U);
 326              		.loc 1 767 5 view .LVU62
 327              		.loc 1 767 32 is_stmt 0 view .LVU63
 328 0000 024B     		ldr	r3, .L29
 329 0002 D3F8140C 		ldr	r0, [r3, #3092]
ARM GAS  /tmp/ccSpQgdi.s 			page 20


 768:Drivers/GD32_F470_STD_Driver/Source/gd32f4xx_fmc.c **** }
 330              		.loc 1 768 1 view .LVU64
 331 0006 C0F34210 		ubfx	r0, r0, #5, #3
 332 000a 7047     		bx	lr
 333              	.L30:
 334              		.align	2
 335              	.L29:
 336 000c 00300240 		.word	1073885184
 337              		.cfi_endproc
 338              	.LFE139:
 340              		.section	.text.ob_write_protection0_get,"ax",%progbits
 341              		.align	1
 342              		.global	ob_write_protection0_get
 343              		.syntax unified
 344              		.thumb
 345              		.thumb_func
 347              	ob_write_protection0_get:
 348              	.LFB140:
 769:Drivers/GD32_F470_STD_Driver/Source/gd32f4xx_fmc.c **** 
 770:Drivers/GD32_F470_STD_Driver/Source/gd32f4xx_fmc.c **** /*!
 771:Drivers/GD32_F470_STD_Driver/Source/gd32f4xx_fmc.c ****     \brief    get the FMC option byte write protection
 772:Drivers/GD32_F470_STD_Driver/Source/gd32f4xx_fmc.c ****     \param[in]  none
 773:Drivers/GD32_F470_STD_Driver/Source/gd32f4xx_fmc.c ****     \param[out] none
 774:Drivers/GD32_F470_STD_Driver/Source/gd32f4xx_fmc.c ****     \retval     the FMC write protection option byte value
 775:Drivers/GD32_F470_STD_Driver/Source/gd32f4xx_fmc.c **** */
 776:Drivers/GD32_F470_STD_Driver/Source/gd32f4xx_fmc.c **** uint16_t ob_write_protection0_get(void)
 777:Drivers/GD32_F470_STD_Driver/Source/gd32f4xx_fmc.c **** {
 349              		.loc 1 777 1 is_stmt 1 view -0
 350              		.cfi_startproc
 351              		@ args = 0, pretend = 0, frame = 0
 352              		@ frame_needed = 0, uses_anonymous_args = 0
 353              		@ link register save eliminated.
 778:Drivers/GD32_F470_STD_Driver/Source/gd32f4xx_fmc.c ****     /* return the FMC write protection option byte value */
 779:Drivers/GD32_F470_STD_Driver/Source/gd32f4xx_fmc.c ****     return (uint16_t)(((uint16_t)(FMC_OBCTL0 >> 16U)) & 0x0FFFU);
 354              		.loc 1 779 5 view .LVU66
 355              		.loc 1 779 35 is_stmt 0 view .LVU67
 356 0000 024B     		ldr	r3, .L32
 357 0002 D3F8140C 		ldr	r0, [r3, #3092]
 780:Drivers/GD32_F470_STD_Driver/Source/gd32f4xx_fmc.c **** }
 358              		.loc 1 780 1 view .LVU68
 359 0006 C0F30B40 		ubfx	r0, r0, #16, #12
 360 000a 7047     		bx	lr
 361              	.L33:
 362              		.align	2
 363              	.L32:
 364 000c 00300240 		.word	1073885184
 365              		.cfi_endproc
 366              	.LFE140:
 368              		.section	.text.ob_write_protection1_get,"ax",%progbits
 369              		.align	1
 370              		.global	ob_write_protection1_get
 371              		.syntax unified
 372              		.thumb
 373              		.thumb_func
 375              	ob_write_protection1_get:
 376              	.LFB141:
 781:Drivers/GD32_F470_STD_Driver/Source/gd32f4xx_fmc.c **** 
ARM GAS  /tmp/ccSpQgdi.s 			page 21


 782:Drivers/GD32_F470_STD_Driver/Source/gd32f4xx_fmc.c **** /*!
 783:Drivers/GD32_F470_STD_Driver/Source/gd32f4xx_fmc.c ****     \brief    get the FMC option byte write protection
 784:Drivers/GD32_F470_STD_Driver/Source/gd32f4xx_fmc.c ****     \param[in]  none
 785:Drivers/GD32_F470_STD_Driver/Source/gd32f4xx_fmc.c ****     \param[out] none
 786:Drivers/GD32_F470_STD_Driver/Source/gd32f4xx_fmc.c ****     \retval     the FMC write protection option byte value
 787:Drivers/GD32_F470_STD_Driver/Source/gd32f4xx_fmc.c **** */
 788:Drivers/GD32_F470_STD_Driver/Source/gd32f4xx_fmc.c **** uint16_t ob_write_protection1_get(void)
 789:Drivers/GD32_F470_STD_Driver/Source/gd32f4xx_fmc.c **** {
 377              		.loc 1 789 1 is_stmt 1 view -0
 378              		.cfi_startproc
 379              		@ args = 0, pretend = 0, frame = 0
 380              		@ frame_needed = 0, uses_anonymous_args = 0
 381              		@ link register save eliminated.
 790:Drivers/GD32_F470_STD_Driver/Source/gd32f4xx_fmc.c ****     /* return the the FMC write protection option byte value */
 791:Drivers/GD32_F470_STD_Driver/Source/gd32f4xx_fmc.c ****     return (uint16_t)(((uint16_t)(FMC_OBCTL1 >> 16U)) & 0x0FFFU);
 382              		.loc 1 791 5 view .LVU70
 383              		.loc 1 791 35 is_stmt 0 view .LVU71
 384 0000 024B     		ldr	r3, .L35
 385 0002 D3F8180C 		ldr	r0, [r3, #3096]
 792:Drivers/GD32_F470_STD_Driver/Source/gd32f4xx_fmc.c **** }
 386              		.loc 1 792 1 view .LVU72
 387 0006 C0F30B40 		ubfx	r0, r0, #16, #12
 388 000a 7047     		bx	lr
 389              	.L36:
 390              		.align	2
 391              	.L35:
 392 000c 00300240 		.word	1073885184
 393              		.cfi_endproc
 394              	.LFE141:
 396              		.section	.text.ob_drp0_get,"ax",%progbits
 397              		.align	1
 398              		.global	ob_drp0_get
 399              		.syntax unified
 400              		.thumb
 401              		.thumb_func
 403              	ob_drp0_get:
 404              	.LFB142:
 793:Drivers/GD32_F470_STD_Driver/Source/gd32f4xx_fmc.c **** 
 794:Drivers/GD32_F470_STD_Driver/Source/gd32f4xx_fmc.c **** /*!
 795:Drivers/GD32_F470_STD_Driver/Source/gd32f4xx_fmc.c ****     \brief    get the FMC erase/program protection and D-bus read protection option bytes value
 796:Drivers/GD32_F470_STD_Driver/Source/gd32f4xx_fmc.c ****     \param[in]  none
 797:Drivers/GD32_F470_STD_Driver/Source/gd32f4xx_fmc.c ****     \param[out] none
 798:Drivers/GD32_F470_STD_Driver/Source/gd32f4xx_fmc.c ****     \retval     the FMC erase/program protection and D-bus read protection option bytes value
 799:Drivers/GD32_F470_STD_Driver/Source/gd32f4xx_fmc.c **** */
 800:Drivers/GD32_F470_STD_Driver/Source/gd32f4xx_fmc.c **** uint16_t ob_drp0_get(void)
 801:Drivers/GD32_F470_STD_Driver/Source/gd32f4xx_fmc.c **** {
 405              		.loc 1 801 1 is_stmt 1 view -0
 406              		.cfi_startproc
 407              		@ args = 0, pretend = 0, frame = 0
 408              		@ frame_needed = 0, uses_anonymous_args = 0
 409              		@ link register save eliminated.
 802:Drivers/GD32_F470_STD_Driver/Source/gd32f4xx_fmc.c ****     /* return the FMC erase/program protection and D-bus read protection option bytes value */
 803:Drivers/GD32_F470_STD_Driver/Source/gd32f4xx_fmc.c ****     if(FMC_OBCTL0 & FMC_OBCTL0_DRP) {
 410              		.loc 1 803 5 view .LVU74
 411              		.loc 1 803 8 is_stmt 0 view .LVU75
 412 0000 064B     		ldr	r3, .L40
 413 0002 D3F8143C 		ldr	r3, [r3, #3092]
ARM GAS  /tmp/ccSpQgdi.s 			page 22


 414              		.loc 1 803 7 view .LVU76
 415 0006 002B     		cmp	r3, #0
 416 0008 05DA     		bge	.L39
 804:Drivers/GD32_F470_STD_Driver/Source/gd32f4xx_fmc.c ****         return (uint16_t)(((uint16_t)(FMC_OBCTL0 >> 16U)) & 0x0FFFU);
 417              		.loc 1 804 9 is_stmt 1 view .LVU77
 418              		.loc 1 804 39 is_stmt 0 view .LVU78
 419 000a 044B     		ldr	r3, .L40
 420 000c D3F8140C 		ldr	r0, [r3, #3092]
 421              		.loc 1 804 16 view .LVU79
 422 0010 C0F30B40 		ubfx	r0, r0, #16, #12
 423 0014 7047     		bx	lr
 424              	.L39:
 805:Drivers/GD32_F470_STD_Driver/Source/gd32f4xx_fmc.c ****     } else {
 806:Drivers/GD32_F470_STD_Driver/Source/gd32f4xx_fmc.c ****         return 0xF000U;
 425              		.loc 1 806 16 view .LVU80
 426 0016 4FF47040 		mov	r0, #61440
 807:Drivers/GD32_F470_STD_Driver/Source/gd32f4xx_fmc.c ****     }
 808:Drivers/GD32_F470_STD_Driver/Source/gd32f4xx_fmc.c **** }
 427              		.loc 1 808 1 view .LVU81
 428 001a 7047     		bx	lr
 429              	.L41:
 430              		.align	2
 431              	.L40:
 432 001c 00300240 		.word	1073885184
 433              		.cfi_endproc
 434              	.LFE142:
 436              		.section	.text.ob_drp1_get,"ax",%progbits
 437              		.align	1
 438              		.global	ob_drp1_get
 439              		.syntax unified
 440              		.thumb
 441              		.thumb_func
 443              	ob_drp1_get:
 444              	.LFB143:
 809:Drivers/GD32_F470_STD_Driver/Source/gd32f4xx_fmc.c **** 
 810:Drivers/GD32_F470_STD_Driver/Source/gd32f4xx_fmc.c **** /*!
 811:Drivers/GD32_F470_STD_Driver/Source/gd32f4xx_fmc.c ****     \brief    get the FMC erase/program protection and D-bus read protection option bytes value
 812:Drivers/GD32_F470_STD_Driver/Source/gd32f4xx_fmc.c ****     \param[in]  none
 813:Drivers/GD32_F470_STD_Driver/Source/gd32f4xx_fmc.c ****     \param[out] none
 814:Drivers/GD32_F470_STD_Driver/Source/gd32f4xx_fmc.c ****     \retval     the FMC erase/program protection and D-bus read protection option bytes value
 815:Drivers/GD32_F470_STD_Driver/Source/gd32f4xx_fmc.c **** */
 816:Drivers/GD32_F470_STD_Driver/Source/gd32f4xx_fmc.c **** uint16_t ob_drp1_get(void)
 817:Drivers/GD32_F470_STD_Driver/Source/gd32f4xx_fmc.c **** {
 445              		.loc 1 817 1 is_stmt 1 view -0
 446              		.cfi_startproc
 447              		@ args = 0, pretend = 0, frame = 0
 448              		@ frame_needed = 0, uses_anonymous_args = 0
 449              		@ link register save eliminated.
 818:Drivers/GD32_F470_STD_Driver/Source/gd32f4xx_fmc.c ****     /* return the FMC erase/program protection and D-bus read protection option bytes value */
 819:Drivers/GD32_F470_STD_Driver/Source/gd32f4xx_fmc.c ****     if(FMC_OBCTL0 & FMC_OBCTL0_DRP) {
 450              		.loc 1 819 5 view .LVU83
 451              		.loc 1 819 8 is_stmt 0 view .LVU84
 452 0000 064B     		ldr	r3, .L45
 453 0002 D3F8143C 		ldr	r3, [r3, #3092]
 454              		.loc 1 819 7 view .LVU85
 455 0006 002B     		cmp	r3, #0
 456 0008 05DA     		bge	.L44
ARM GAS  /tmp/ccSpQgdi.s 			page 23


 820:Drivers/GD32_F470_STD_Driver/Source/gd32f4xx_fmc.c ****         return (uint16_t)(((uint16_t)(FMC_OBCTL1 >> 16U)) & 0x0FFFU);
 457              		.loc 1 820 9 is_stmt 1 view .LVU86
 458              		.loc 1 820 39 is_stmt 0 view .LVU87
 459 000a 044B     		ldr	r3, .L45
 460 000c D3F8180C 		ldr	r0, [r3, #3096]
 461              		.loc 1 820 16 view .LVU88
 462 0010 C0F30B40 		ubfx	r0, r0, #16, #12
 463 0014 7047     		bx	lr
 464              	.L44:
 821:Drivers/GD32_F470_STD_Driver/Source/gd32f4xx_fmc.c ****     } else {
 822:Drivers/GD32_F470_STD_Driver/Source/gd32f4xx_fmc.c ****         return 0xF000U;
 465              		.loc 1 822 16 view .LVU89
 466 0016 4FF47040 		mov	r0, #61440
 823:Drivers/GD32_F470_STD_Driver/Source/gd32f4xx_fmc.c ****     }
 824:Drivers/GD32_F470_STD_Driver/Source/gd32f4xx_fmc.c **** }
 467              		.loc 1 824 1 view .LVU90
 468 001a 7047     		bx	lr
 469              	.L46:
 470              		.align	2
 471              	.L45:
 472 001c 00300240 		.word	1073885184
 473              		.cfi_endproc
 474              	.LFE143:
 476              		.section	.text.ob_spc_get,"ax",%progbits
 477              		.align	1
 478              		.global	ob_spc_get
 479              		.syntax unified
 480              		.thumb
 481              		.thumb_func
 483              	ob_spc_get:
 484              	.LFB144:
 825:Drivers/GD32_F470_STD_Driver/Source/gd32f4xx_fmc.c **** 
 826:Drivers/GD32_F470_STD_Driver/Source/gd32f4xx_fmc.c **** /*!
 827:Drivers/GD32_F470_STD_Driver/Source/gd32f4xx_fmc.c ****     \brief    get option byte security protection code value
 828:Drivers/GD32_F470_STD_Driver/Source/gd32f4xx_fmc.c ****     \param[in]  none
 829:Drivers/GD32_F470_STD_Driver/Source/gd32f4xx_fmc.c ****     \param[out] none
 830:Drivers/GD32_F470_STD_Driver/Source/gd32f4xx_fmc.c ****     \retval     FlagStatus: SET or RESET
 831:Drivers/GD32_F470_STD_Driver/Source/gd32f4xx_fmc.c **** */
 832:Drivers/GD32_F470_STD_Driver/Source/gd32f4xx_fmc.c **** FlagStatus ob_spc_get(void)
 833:Drivers/GD32_F470_STD_Driver/Source/gd32f4xx_fmc.c **** {
 485              		.loc 1 833 1 is_stmt 1 view -0
 486              		.cfi_startproc
 487              		@ args = 0, pretend = 0, frame = 0
 488              		@ frame_needed = 0, uses_anonymous_args = 0
 489              		@ link register save eliminated.
 834:Drivers/GD32_F470_STD_Driver/Source/gd32f4xx_fmc.c ****     FlagStatus spc_state = RESET;
 490              		.loc 1 834 5 view .LVU92
 491              	.LVL12:
 835:Drivers/GD32_F470_STD_Driver/Source/gd32f4xx_fmc.c **** 
 836:Drivers/GD32_F470_STD_Driver/Source/gd32f4xx_fmc.c ****     if(((uint8_t)(FMC_OBCTL0 >> 8U)) != FMC_NSPC) {
 492              		.loc 1 836 5 view .LVU93
 493              		.loc 1 836 19 is_stmt 0 view .LVU94
 494 0000 054B     		ldr	r3, .L50
 495 0002 D3F8143C 		ldr	r3, [r3, #3092]
 496              		.loc 1 836 9 view .LVU95
 497 0006 C3F30723 		ubfx	r3, r3, #8, #8
 498              		.loc 1 836 7 view .LVU96
ARM GAS  /tmp/ccSpQgdi.s 			page 24


 499 000a AA2B     		cmp	r3, #170
 500 000c 01D0     		beq	.L49
 837:Drivers/GD32_F470_STD_Driver/Source/gd32f4xx_fmc.c ****         spc_state = SET;
 501              		.loc 1 837 19 view .LVU97
 502 000e 0120     		movs	r0, #1
 503 0010 7047     		bx	lr
 504              	.L49:
 838:Drivers/GD32_F470_STD_Driver/Source/gd32f4xx_fmc.c ****     } else {
 839:Drivers/GD32_F470_STD_Driver/Source/gd32f4xx_fmc.c ****         spc_state = RESET;
 505              		.loc 1 839 19 view .LVU98
 506 0012 0020     		movs	r0, #0
 507              	.LVL13:
 840:Drivers/GD32_F470_STD_Driver/Source/gd32f4xx_fmc.c ****     }
 841:Drivers/GD32_F470_STD_Driver/Source/gd32f4xx_fmc.c ****     return spc_state;
 508              		.loc 1 841 5 is_stmt 1 view .LVU99
 842:Drivers/GD32_F470_STD_Driver/Source/gd32f4xx_fmc.c **** }
 509              		.loc 1 842 1 is_stmt 0 view .LVU100
 510 0014 7047     		bx	lr
 511              	.L51:
 512 0016 00BF     		.align	2
 513              	.L50:
 514 0018 00300240 		.word	1073885184
 515              		.cfi_endproc
 516              	.LFE144:
 518              		.section	.text.ob_user_bor_threshold_get,"ax",%progbits
 519              		.align	1
 520              		.global	ob_user_bor_threshold_get
 521              		.syntax unified
 522              		.thumb
 523              		.thumb_func
 525              	ob_user_bor_threshold_get:
 526              	.LFB145:
 843:Drivers/GD32_F470_STD_Driver/Source/gd32f4xx_fmc.c **** 
 844:Drivers/GD32_F470_STD_Driver/Source/gd32f4xx_fmc.c **** /*!
 845:Drivers/GD32_F470_STD_Driver/Source/gd32f4xx_fmc.c ****     \brief    get the FMC option byte BOR threshold value
 846:Drivers/GD32_F470_STD_Driver/Source/gd32f4xx_fmc.c ****     \param[in]  none
 847:Drivers/GD32_F470_STD_Driver/Source/gd32f4xx_fmc.c ****     \param[out] none
 848:Drivers/GD32_F470_STD_Driver/Source/gd32f4xx_fmc.c ****     \retval     the FMC BOR threshold value:OB_BOR_TH_OFF,OB_BOR_TH_VALUE1,OB_BOR_TH_VALUE2,OB_BOR_
 849:Drivers/GD32_F470_STD_Driver/Source/gd32f4xx_fmc.c **** */
 850:Drivers/GD32_F470_STD_Driver/Source/gd32f4xx_fmc.c **** uint8_t ob_user_bor_threshold_get(void)
 851:Drivers/GD32_F470_STD_Driver/Source/gd32f4xx_fmc.c **** {
 527              		.loc 1 851 1 is_stmt 1 view -0
 528              		.cfi_startproc
 529              		@ args = 0, pretend = 0, frame = 0
 530              		@ frame_needed = 0, uses_anonymous_args = 0
 531              		@ link register save eliminated.
 852:Drivers/GD32_F470_STD_Driver/Source/gd32f4xx_fmc.c ****     /* return the FMC BOR threshold value */
 853:Drivers/GD32_F470_STD_Driver/Source/gd32f4xx_fmc.c ****     return (uint8_t)((uint8_t)FMC_OBCTL0 & 0x0CU);
 532              		.loc 1 853 5 view .LVU102
 533              		.loc 1 853 31 is_stmt 0 view .LVU103
 534 0000 024B     		ldr	r3, .L53
 535 0002 D3F8140C 		ldr	r0, [r3, #3092]
 854:Drivers/GD32_F470_STD_Driver/Source/gd32f4xx_fmc.c **** }
 536              		.loc 1 854 1 view .LVU104
 537 0006 00F00C00 		and	r0, r0, #12
 538 000a 7047     		bx	lr
 539              	.L54:
ARM GAS  /tmp/ccSpQgdi.s 			page 25


 540              		.align	2
 541              	.L53:
 542 000c 00300240 		.word	1073885184
 543              		.cfi_endproc
 544              	.LFE145:
 546              		.section	.text.fmc_flag_get,"ax",%progbits
 547              		.align	1
 548              		.global	fmc_flag_get
 549              		.syntax unified
 550              		.thumb
 551              		.thumb_func
 553              	fmc_flag_get:
 554              	.LVL14:
 555              	.LFB146:
 855:Drivers/GD32_F470_STD_Driver/Source/gd32f4xx_fmc.c **** 
 856:Drivers/GD32_F470_STD_Driver/Source/gd32f4xx_fmc.c **** /*!
 857:Drivers/GD32_F470_STD_Driver/Source/gd32f4xx_fmc.c ****     \brief    get flag set or reset
 858:Drivers/GD32_F470_STD_Driver/Source/gd32f4xx_fmc.c ****     \param[in]  fmc_flag: check FMC flag
 859:Drivers/GD32_F470_STD_Driver/Source/gd32f4xx_fmc.c ****                 only one parameter can be selected which is shown as below:
 860:Drivers/GD32_F470_STD_Driver/Source/gd32f4xx_fmc.c ****       \arg        FMC_FLAG_BUSY: FMC busy flag bit
 861:Drivers/GD32_F470_STD_Driver/Source/gd32f4xx_fmc.c ****       \arg        FMC_FLAG_RDDERR: FMC read D-bus protection error flag bit
 862:Drivers/GD32_F470_STD_Driver/Source/gd32f4xx_fmc.c ****       \arg        FMC_FLAG_PGSERR: FMC program sequence error flag bit
 863:Drivers/GD32_F470_STD_Driver/Source/gd32f4xx_fmc.c ****       \arg        FMC_FLAG_PGMERR: FMC program size not match error flag bit
 864:Drivers/GD32_F470_STD_Driver/Source/gd32f4xx_fmc.c ****       \arg        FMC_FLAG_WPERR: FMC Erase/Program protection error flag bit
 865:Drivers/GD32_F470_STD_Driver/Source/gd32f4xx_fmc.c ****       \arg        FMC_FLAG_OPERR: FMC operation error flag bit
 866:Drivers/GD32_F470_STD_Driver/Source/gd32f4xx_fmc.c ****       \arg        FMC_FLAG_END: FMC end of operation flag bit
 867:Drivers/GD32_F470_STD_Driver/Source/gd32f4xx_fmc.c ****     \param[out] none
 868:Drivers/GD32_F470_STD_Driver/Source/gd32f4xx_fmc.c ****     \retval     FlagStatus: SET or RESET
 869:Drivers/GD32_F470_STD_Driver/Source/gd32f4xx_fmc.c **** */
 870:Drivers/GD32_F470_STD_Driver/Source/gd32f4xx_fmc.c **** FlagStatus fmc_flag_get(uint32_t fmc_flag)
 871:Drivers/GD32_F470_STD_Driver/Source/gd32f4xx_fmc.c **** {
 556              		.loc 1 871 1 is_stmt 1 view -0
 557              		.cfi_startproc
 558              		@ args = 0, pretend = 0, frame = 0
 559              		@ frame_needed = 0, uses_anonymous_args = 0
 560              		@ link register save eliminated.
 872:Drivers/GD32_F470_STD_Driver/Source/gd32f4xx_fmc.c ****     if(FMC_STAT & fmc_flag) {
 561              		.loc 1 872 5 view .LVU106
 562              		.loc 1 872 8 is_stmt 0 view .LVU107
 563 0000 044B     		ldr	r3, .L58
 564 0002 D3F80C3C 		ldr	r3, [r3, #3084]
 565              		.loc 1 872 7 view .LVU108
 566 0006 0342     		tst	r3, r0
 567 0008 01D1     		bne	.L57
 873:Drivers/GD32_F470_STD_Driver/Source/gd32f4xx_fmc.c ****         return SET;
 874:Drivers/GD32_F470_STD_Driver/Source/gd32f4xx_fmc.c ****     }
 875:Drivers/GD32_F470_STD_Driver/Source/gd32f4xx_fmc.c ****     /* return the state of corresponding FMC flag */
 876:Drivers/GD32_F470_STD_Driver/Source/gd32f4xx_fmc.c ****     return RESET;
 568              		.loc 1 876 12 view .LVU109
 569 000a 0020     		movs	r0, #0
 570              	.LVL15:
 571              		.loc 1 876 12 view .LVU110
 572 000c 7047     		bx	lr
 573              	.LVL16:
 574              	.L57:
 873:Drivers/GD32_F470_STD_Driver/Source/gd32f4xx_fmc.c ****         return SET;
 575              		.loc 1 873 16 view .LVU111
ARM GAS  /tmp/ccSpQgdi.s 			page 26


 576 000e 0120     		movs	r0, #1
 577              	.LVL17:
 877:Drivers/GD32_F470_STD_Driver/Source/gd32f4xx_fmc.c **** }
 578              		.loc 1 877 1 view .LVU112
 579 0010 7047     		bx	lr
 580              	.L59:
 581 0012 00BF     		.align	2
 582              	.L58:
 583 0014 00300240 		.word	1073885184
 584              		.cfi_endproc
 585              	.LFE146:
 587              		.section	.text.fmc_flag_clear,"ax",%progbits
 588              		.align	1
 589              		.global	fmc_flag_clear
 590              		.syntax unified
 591              		.thumb
 592              		.thumb_func
 594              	fmc_flag_clear:
 595              	.LVL18:
 596              	.LFB147:
 878:Drivers/GD32_F470_STD_Driver/Source/gd32f4xx_fmc.c **** 
 879:Drivers/GD32_F470_STD_Driver/Source/gd32f4xx_fmc.c **** /*!
 880:Drivers/GD32_F470_STD_Driver/Source/gd32f4xx_fmc.c ****     \brief    clear the FMC pending flag
 881:Drivers/GD32_F470_STD_Driver/Source/gd32f4xx_fmc.c ****     \param[in]  FMC_flag: clear FMC flag
 882:Drivers/GD32_F470_STD_Driver/Source/gd32f4xx_fmc.c ****                 only one parameter can be selected which is shown as below:
 883:Drivers/GD32_F470_STD_Driver/Source/gd32f4xx_fmc.c ****       \arg        FMC_FLAG_RDDERR: FMC read D-bus protection error flag bit
 884:Drivers/GD32_F470_STD_Driver/Source/gd32f4xx_fmc.c ****       \arg        FMC_FLAG_PGSERR: FMC program sequence error flag bit
 885:Drivers/GD32_F470_STD_Driver/Source/gd32f4xx_fmc.c ****       \arg        FMC_FLAG_PGMERR: FMC program size not match error flag bit
 886:Drivers/GD32_F470_STD_Driver/Source/gd32f4xx_fmc.c ****       \arg        FMC_FLAG_WPERR: FMC erase/program protection error flag bit
 887:Drivers/GD32_F470_STD_Driver/Source/gd32f4xx_fmc.c ****       \arg        FMC_FLAG_OPERR: FMC operation error flag bit
 888:Drivers/GD32_F470_STD_Driver/Source/gd32f4xx_fmc.c ****       \arg        FMC_FLAG_END: FMC end of operation flag bit
 889:Drivers/GD32_F470_STD_Driver/Source/gd32f4xx_fmc.c ****     \param[out] none
 890:Drivers/GD32_F470_STD_Driver/Source/gd32f4xx_fmc.c ****     \retval     none
 891:Drivers/GD32_F470_STD_Driver/Source/gd32f4xx_fmc.c **** */
 892:Drivers/GD32_F470_STD_Driver/Source/gd32f4xx_fmc.c **** void fmc_flag_clear(uint32_t fmc_flag)
 893:Drivers/GD32_F470_STD_Driver/Source/gd32f4xx_fmc.c **** {
 597              		.loc 1 893 1 is_stmt 1 view -0
 598              		.cfi_startproc
 599              		@ args = 0, pretend = 0, frame = 0
 600              		@ frame_needed = 0, uses_anonymous_args = 0
 601              		@ link register save eliminated.
 894:Drivers/GD32_F470_STD_Driver/Source/gd32f4xx_fmc.c ****     /* clear the flags */
 895:Drivers/GD32_F470_STD_Driver/Source/gd32f4xx_fmc.c ****     FMC_STAT = fmc_flag;
 602              		.loc 1 895 5 view .LVU114
 603              		.loc 1 895 14 is_stmt 0 view .LVU115
 604 0000 014B     		ldr	r3, .L61
 605 0002 C3F80C0C 		str	r0, [r3, #3084]
 896:Drivers/GD32_F470_STD_Driver/Source/gd32f4xx_fmc.c **** }
 606              		.loc 1 896 1 view .LVU116
 607 0006 7047     		bx	lr
 608              	.L62:
 609              		.align	2
 610              	.L61:
 611 0008 00300240 		.word	1073885184
 612              		.cfi_endproc
 613              	.LFE147:
 615              		.section	.text.fmc_interrupt_enable,"ax",%progbits
ARM GAS  /tmp/ccSpQgdi.s 			page 27


 616              		.align	1
 617              		.global	fmc_interrupt_enable
 618              		.syntax unified
 619              		.thumb
 620              		.thumb_func
 622              	fmc_interrupt_enable:
 623              	.LVL19:
 624              	.LFB148:
 897:Drivers/GD32_F470_STD_Driver/Source/gd32f4xx_fmc.c **** 
 898:Drivers/GD32_F470_STD_Driver/Source/gd32f4xx_fmc.c **** /*!
 899:Drivers/GD32_F470_STD_Driver/Source/gd32f4xx_fmc.c ****     \brief    enable FMC interrupt
 900:Drivers/GD32_F470_STD_Driver/Source/gd32f4xx_fmc.c ****     \param[in]  fmc_int: the FMC interrupt source
 901:Drivers/GD32_F470_STD_Driver/Source/gd32f4xx_fmc.c ****                 only one parameter can be selected which is shown as below:
 902:Drivers/GD32_F470_STD_Driver/Source/gd32f4xx_fmc.c ****       \arg        FMC_INT_END: enable FMC end of program interrupt
 903:Drivers/GD32_F470_STD_Driver/Source/gd32f4xx_fmc.c ****       \arg        FMC_INT_ERR: enable FMC error interrupt
 904:Drivers/GD32_F470_STD_Driver/Source/gd32f4xx_fmc.c ****     \param[out] none
 905:Drivers/GD32_F470_STD_Driver/Source/gd32f4xx_fmc.c ****     \retval     none
 906:Drivers/GD32_F470_STD_Driver/Source/gd32f4xx_fmc.c **** */
 907:Drivers/GD32_F470_STD_Driver/Source/gd32f4xx_fmc.c **** void fmc_interrupt_enable(uint32_t fmc_int)
 908:Drivers/GD32_F470_STD_Driver/Source/gd32f4xx_fmc.c **** {
 625              		.loc 1 908 1 is_stmt 1 view -0
 626              		.cfi_startproc
 627              		@ args = 0, pretend = 0, frame = 0
 628              		@ frame_needed = 0, uses_anonymous_args = 0
 629              		@ link register save eliminated.
 909:Drivers/GD32_F470_STD_Driver/Source/gd32f4xx_fmc.c ****     FMC_CTL |= fmc_int;
 630              		.loc 1 909 5 view .LVU118
 631              		.loc 1 909 13 is_stmt 0 view .LVU119
 632 0000 034A     		ldr	r2, .L64
 633 0002 D2F8103C 		ldr	r3, [r2, #3088]
 634 0006 0343     		orrs	r3, r3, r0
 635 0008 C2F8103C 		str	r3, [r2, #3088]
 910:Drivers/GD32_F470_STD_Driver/Source/gd32f4xx_fmc.c **** }
 636              		.loc 1 910 1 view .LVU120
 637 000c 7047     		bx	lr
 638              	.L65:
 639 000e 00BF     		.align	2
 640              	.L64:
 641 0010 00300240 		.word	1073885184
 642              		.cfi_endproc
 643              	.LFE148:
 645              		.section	.text.fmc_interrupt_disable,"ax",%progbits
 646              		.align	1
 647              		.global	fmc_interrupt_disable
 648              		.syntax unified
 649              		.thumb
 650              		.thumb_func
 652              	fmc_interrupt_disable:
 653              	.LVL20:
 654              	.LFB149:
 911:Drivers/GD32_F470_STD_Driver/Source/gd32f4xx_fmc.c **** 
 912:Drivers/GD32_F470_STD_Driver/Source/gd32f4xx_fmc.c **** /*!
 913:Drivers/GD32_F470_STD_Driver/Source/gd32f4xx_fmc.c ****     \brief    disable FMC interrupt
 914:Drivers/GD32_F470_STD_Driver/Source/gd32f4xx_fmc.c ****     \param[in]  fmc_int: the FMC interrupt source
 915:Drivers/GD32_F470_STD_Driver/Source/gd32f4xx_fmc.c ****                 only one parameter can be selected which is shown as below:
 916:Drivers/GD32_F470_STD_Driver/Source/gd32f4xx_fmc.c ****       \arg        FMC_INT_END: disable FMC end of program interrupt
 917:Drivers/GD32_F470_STD_Driver/Source/gd32f4xx_fmc.c ****       \arg        FMC_INT_ERR: disable FMC error interrupt
ARM GAS  /tmp/ccSpQgdi.s 			page 28


 918:Drivers/GD32_F470_STD_Driver/Source/gd32f4xx_fmc.c ****     \param[out] none
 919:Drivers/GD32_F470_STD_Driver/Source/gd32f4xx_fmc.c ****     \retval     none
 920:Drivers/GD32_F470_STD_Driver/Source/gd32f4xx_fmc.c **** */
 921:Drivers/GD32_F470_STD_Driver/Source/gd32f4xx_fmc.c **** void fmc_interrupt_disable(uint32_t fmc_int)
 922:Drivers/GD32_F470_STD_Driver/Source/gd32f4xx_fmc.c **** {
 655              		.loc 1 922 1 is_stmt 1 view -0
 656              		.cfi_startproc
 657              		@ args = 0, pretend = 0, frame = 0
 658              		@ frame_needed = 0, uses_anonymous_args = 0
 659              		@ link register save eliminated.
 923:Drivers/GD32_F470_STD_Driver/Source/gd32f4xx_fmc.c ****     FMC_CTL &= ~(uint32_t)fmc_int;
 660              		.loc 1 923 5 view .LVU122
 661              		.loc 1 923 13 is_stmt 0 view .LVU123
 662 0000 034A     		ldr	r2, .L67
 663 0002 D2F8103C 		ldr	r3, [r2, #3088]
 664 0006 23EA0003 		bic	r3, r3, r0
 665 000a C2F8103C 		str	r3, [r2, #3088]
 924:Drivers/GD32_F470_STD_Driver/Source/gd32f4xx_fmc.c **** }
 666              		.loc 1 924 1 view .LVU124
 667 000e 7047     		bx	lr
 668              	.L68:
 669              		.align	2
 670              	.L67:
 671 0010 00300240 		.word	1073885184
 672              		.cfi_endproc
 673              	.LFE149:
 675              		.section	.text.fmc_interrupt_flag_get,"ax",%progbits
 676              		.align	1
 677              		.global	fmc_interrupt_flag_get
 678              		.syntax unified
 679              		.thumb
 680              		.thumb_func
 682              	fmc_interrupt_flag_get:
 683              	.LVL21:
 684              	.LFB150:
 925:Drivers/GD32_F470_STD_Driver/Source/gd32f4xx_fmc.c **** 
 926:Drivers/GD32_F470_STD_Driver/Source/gd32f4xx_fmc.c **** /*!
 927:Drivers/GD32_F470_STD_Driver/Source/gd32f4xx_fmc.c ****     \brief    get FMC interrupt flag set or reset
 928:Drivers/GD32_F470_STD_Driver/Source/gd32f4xx_fmc.c ****     \param[in]  fmc_int_flag: FMC interrupt flag
 929:Drivers/GD32_F470_STD_Driver/Source/gd32f4xx_fmc.c ****                 only one parameter can be selected which is shown as below:
 930:Drivers/GD32_F470_STD_Driver/Source/gd32f4xx_fmc.c ****       \arg        FMC_INT_FLAG_RDDERR: FMC read D-bus protection error interrupt flag
 931:Drivers/GD32_F470_STD_Driver/Source/gd32f4xx_fmc.c ****       \arg        FMC_INT_FLAG_PGSERR: FMC program sequence error interrupt flag
 932:Drivers/GD32_F470_STD_Driver/Source/gd32f4xx_fmc.c ****       \arg        FMC_INT_FLAG_PGMERR: FMC program size not match error interrupt flag
 933:Drivers/GD32_F470_STD_Driver/Source/gd32f4xx_fmc.c ****       \arg        FMC_INT_FLAG_WPERR: FMC Erase/Program protection error interrupt flag
 934:Drivers/GD32_F470_STD_Driver/Source/gd32f4xx_fmc.c ****       \arg        FMC_INT_FLAG_OPERR: FMC operation error interrupt flag
 935:Drivers/GD32_F470_STD_Driver/Source/gd32f4xx_fmc.c ****       \arg        FMC_INT_FLAG_END: FMC end of operation interrupt flag
 936:Drivers/GD32_F470_STD_Driver/Source/gd32f4xx_fmc.c ****     \param[out] none
 937:Drivers/GD32_F470_STD_Driver/Source/gd32f4xx_fmc.c ****     \retval     FlagStatus: SET or RESET
 938:Drivers/GD32_F470_STD_Driver/Source/gd32f4xx_fmc.c **** */
 939:Drivers/GD32_F470_STD_Driver/Source/gd32f4xx_fmc.c **** FlagStatus fmc_interrupt_flag_get(uint32_t fmc_int_flag)
 940:Drivers/GD32_F470_STD_Driver/Source/gd32f4xx_fmc.c **** {
 685              		.loc 1 940 1 is_stmt 1 view -0
 686              		.cfi_startproc
 687              		@ args = 0, pretend = 0, frame = 0
 688              		@ frame_needed = 0, uses_anonymous_args = 0
 689              		@ link register save eliminated.
 941:Drivers/GD32_F470_STD_Driver/Source/gd32f4xx_fmc.c ****     if(FMC_FLAG_END == fmc_int_flag) {
ARM GAS  /tmp/ccSpQgdi.s 			page 29


 690              		.loc 1 941 5 view .LVU126
 691              		.loc 1 941 7 is_stmt 0 view .LVU127
 692 0000 0128     		cmp	r0, #1
 693 0002 0CD0     		beq	.L76
 942:Drivers/GD32_F470_STD_Driver/Source/gd32f4xx_fmc.c ****         /* end of operation interrupt flag */
 943:Drivers/GD32_F470_STD_Driver/Source/gd32f4xx_fmc.c ****         if(FMC_CTL & FMC_CTL_ENDIE) {
 944:Drivers/GD32_F470_STD_Driver/Source/gd32f4xx_fmc.c ****             if(FMC_STAT & fmc_int_flag) {
 945:Drivers/GD32_F470_STD_Driver/Source/gd32f4xx_fmc.c ****                 return SET;
 946:Drivers/GD32_F470_STD_Driver/Source/gd32f4xx_fmc.c ****             }
 947:Drivers/GD32_F470_STD_Driver/Source/gd32f4xx_fmc.c ****         }
 948:Drivers/GD32_F470_STD_Driver/Source/gd32f4xx_fmc.c ****     } else {
 949:Drivers/GD32_F470_STD_Driver/Source/gd32f4xx_fmc.c ****         /* error interrupt flags */
 950:Drivers/GD32_F470_STD_Driver/Source/gd32f4xx_fmc.c ****         if(FMC_CTL & FMC_CTL_ERRIE) {
 694              		.loc 1 950 9 is_stmt 1 view .LVU128
 695              		.loc 1 950 12 is_stmt 0 view .LVU129
 696 0004 104B     		ldr	r3, .L77
 697 0006 D3F8103C 		ldr	r3, [r3, #3088]
 698              		.loc 1 950 11 view .LVU130
 699 000a 13F0007F 		tst	r3, #33554432
 700 000e 17D0     		beq	.L74
 951:Drivers/GD32_F470_STD_Driver/Source/gd32f4xx_fmc.c ****             if(FMC_STAT & fmc_int_flag) {
 701              		.loc 1 951 13 is_stmt 1 view .LVU131
 702              		.loc 1 951 16 is_stmt 0 view .LVU132
 703 0010 0D4B     		ldr	r3, .L77
 704 0012 D3F80C3C 		ldr	r3, [r3, #3084]
 705              		.loc 1 951 15 view .LVU133
 706 0016 0342     		tst	r3, r0
 707 0018 14D1     		bne	.L75
 952:Drivers/GD32_F470_STD_Driver/Source/gd32f4xx_fmc.c ****                 return SET;
 953:Drivers/GD32_F470_STD_Driver/Source/gd32f4xx_fmc.c ****             }
 954:Drivers/GD32_F470_STD_Driver/Source/gd32f4xx_fmc.c ****         }
 955:Drivers/GD32_F470_STD_Driver/Source/gd32f4xx_fmc.c ****     }
 956:Drivers/GD32_F470_STD_Driver/Source/gd32f4xx_fmc.c **** 
 957:Drivers/GD32_F470_STD_Driver/Source/gd32f4xx_fmc.c ****     return RESET;
 708              		.loc 1 957 12 view .LVU134
 709 001a 0020     		movs	r0, #0
 710              	.LVL22:
 711              		.loc 1 957 12 view .LVU135
 712 001c 7047     		bx	lr
 713              	.LVL23:
 714              	.L76:
 943:Drivers/GD32_F470_STD_Driver/Source/gd32f4xx_fmc.c ****             if(FMC_STAT & fmc_int_flag) {
 715              		.loc 1 943 9 is_stmt 1 view .LVU136
 943:Drivers/GD32_F470_STD_Driver/Source/gd32f4xx_fmc.c ****             if(FMC_STAT & fmc_int_flag) {
 716              		.loc 1 943 12 is_stmt 0 view .LVU137
 717 001e 0A4B     		ldr	r3, .L77
 718 0020 D3F8103C 		ldr	r3, [r3, #3088]
 943:Drivers/GD32_F470_STD_Driver/Source/gd32f4xx_fmc.c ****             if(FMC_STAT & fmc_int_flag) {
 719              		.loc 1 943 11 view .LVU138
 720 0024 13F0807F 		tst	r3, #16777216
 721 0028 06D0     		beq	.L72
 944:Drivers/GD32_F470_STD_Driver/Source/gd32f4xx_fmc.c ****                 return SET;
 722              		.loc 1 944 13 is_stmt 1 view .LVU139
 944:Drivers/GD32_F470_STD_Driver/Source/gd32f4xx_fmc.c ****                 return SET;
 723              		.loc 1 944 16 is_stmt 0 view .LVU140
 724 002a 074B     		ldr	r3, .L77
 725 002c D3F80C3C 		ldr	r3, [r3, #3084]
ARM GAS  /tmp/ccSpQgdi.s 			page 30


 944:Drivers/GD32_F470_STD_Driver/Source/gd32f4xx_fmc.c ****                 return SET;
 726              		.loc 1 944 15 view .LVU141
 727 0030 0342     		tst	r3, r0
 728 0032 03D1     		bne	.L73
 729              		.loc 1 957 12 view .LVU142
 730 0034 0020     		movs	r0, #0
 731              	.LVL24:
 732              		.loc 1 957 12 view .LVU143
 733 0036 7047     		bx	lr
 734              	.LVL25:
 735              	.L72:
 736              		.loc 1 957 12 view .LVU144
 737 0038 0020     		movs	r0, #0
 738              	.LVL26:
 739              		.loc 1 957 12 view .LVU145
 740 003a 7047     		bx	lr
 741              	.LVL27:
 742              	.L73:
 945:Drivers/GD32_F470_STD_Driver/Source/gd32f4xx_fmc.c ****             }
 743              		.loc 1 945 24 view .LVU146
 744 003c 0120     		movs	r0, #1
 745              	.LVL28:
 945:Drivers/GD32_F470_STD_Driver/Source/gd32f4xx_fmc.c ****             }
 746              		.loc 1 945 24 view .LVU147
 747 003e 7047     		bx	lr
 748              	.LVL29:
 749              	.L74:
 750              		.loc 1 957 12 view .LVU148
 751 0040 0020     		movs	r0, #0
 752              	.LVL30:
 753              		.loc 1 957 12 view .LVU149
 754 0042 7047     		bx	lr
 755              	.LVL31:
 756              	.L75:
 952:Drivers/GD32_F470_STD_Driver/Source/gd32f4xx_fmc.c ****             }
 757              		.loc 1 952 24 view .LVU150
 758 0044 0120     		movs	r0, #1
 759              	.LVL32:
 958:Drivers/GD32_F470_STD_Driver/Source/gd32f4xx_fmc.c **** }
 760              		.loc 1 958 1 view .LVU151
 761 0046 7047     		bx	lr
 762              	.L78:
 763              		.align	2
 764              	.L77:
 765 0048 00300240 		.word	1073885184
 766              		.cfi_endproc
 767              	.LFE150:
 769              		.section	.text.fmc_interrupt_flag_clear,"ax",%progbits
 770              		.align	1
 771              		.global	fmc_interrupt_flag_clear
 772              		.syntax unified
 773              		.thumb
 774              		.thumb_func
 776              	fmc_interrupt_flag_clear:
 777              	.LVL33:
 778              	.LFB151:
 959:Drivers/GD32_F470_STD_Driver/Source/gd32f4xx_fmc.c **** 
ARM GAS  /tmp/ccSpQgdi.s 			page 31


 960:Drivers/GD32_F470_STD_Driver/Source/gd32f4xx_fmc.c **** /*!
 961:Drivers/GD32_F470_STD_Driver/Source/gd32f4xx_fmc.c ****     \brief    clear the FMC interrupt flag
 962:Drivers/GD32_F470_STD_Driver/Source/gd32f4xx_fmc.c ****     \param[in]  fmc_int_flag: FMC interrupt flag
 963:Drivers/GD32_F470_STD_Driver/Source/gd32f4xx_fmc.c ****                 only one parameter can be selected which is shown as below:
 964:Drivers/GD32_F470_STD_Driver/Source/gd32f4xx_fmc.c ****       \arg        FMC_INT_FLAG_RDDERR: FMC read D-bus protection error interrupt flag
 965:Drivers/GD32_F470_STD_Driver/Source/gd32f4xx_fmc.c ****       \arg        FMC_INT_FLAG_PGSERR: FMC program sequence error interrupt flag
 966:Drivers/GD32_F470_STD_Driver/Source/gd32f4xx_fmc.c ****       \arg        FMC_INT_FLAG_PGMERR: FMC program size not match error interrupt flag
 967:Drivers/GD32_F470_STD_Driver/Source/gd32f4xx_fmc.c ****       \arg        FMC_INT_FLAG_WPERR: FMC Erase/Program protection error interrupt flag
 968:Drivers/GD32_F470_STD_Driver/Source/gd32f4xx_fmc.c ****       \arg        FMC_INT_FLAG_OPERR: FMC operation error interrupt flag
 969:Drivers/GD32_F470_STD_Driver/Source/gd32f4xx_fmc.c ****       \arg        FMC_INT_FLAG_END: FMC end of operation interrupt flag
 970:Drivers/GD32_F470_STD_Driver/Source/gd32f4xx_fmc.c ****     \param[out] none
 971:Drivers/GD32_F470_STD_Driver/Source/gd32f4xx_fmc.c ****     \retval     none
 972:Drivers/GD32_F470_STD_Driver/Source/gd32f4xx_fmc.c **** */
 973:Drivers/GD32_F470_STD_Driver/Source/gd32f4xx_fmc.c **** void fmc_interrupt_flag_clear(uint32_t fmc_int_flag)
 974:Drivers/GD32_F470_STD_Driver/Source/gd32f4xx_fmc.c **** {
 779              		.loc 1 974 1 is_stmt 1 view -0
 780              		.cfi_startproc
 781              		@ args = 0, pretend = 0, frame = 0
 782              		@ frame_needed = 0, uses_anonymous_args = 0
 783              		@ link register save eliminated.
 975:Drivers/GD32_F470_STD_Driver/Source/gd32f4xx_fmc.c ****     /* clear the interrupt flag */
 976:Drivers/GD32_F470_STD_Driver/Source/gd32f4xx_fmc.c ****     FMC_STAT = fmc_int_flag;
 784              		.loc 1 976 5 view .LVU153
 785              		.loc 1 976 14 is_stmt 0 view .LVU154
 786 0000 014B     		ldr	r3, .L80
 787 0002 C3F80C0C 		str	r0, [r3, #3084]
 977:Drivers/GD32_F470_STD_Driver/Source/gd32f4xx_fmc.c **** }
 788              		.loc 1 977 1 view .LVU155
 789 0006 7047     		bx	lr
 790              	.L81:
 791              		.align	2
 792              	.L80:
 793 0008 00300240 		.word	1073885184
 794              		.cfi_endproc
 795              	.LFE151:
 797              		.section	.text.fmc_state_get,"ax",%progbits
 798              		.align	1
 799              		.global	fmc_state_get
 800              		.syntax unified
 801              		.thumb
 802              		.thumb_func
 804              	fmc_state_get:
 805              	.LFB152:
 978:Drivers/GD32_F470_STD_Driver/Source/gd32f4xx_fmc.c **** 
 979:Drivers/GD32_F470_STD_Driver/Source/gd32f4xx_fmc.c **** /*!
 980:Drivers/GD32_F470_STD_Driver/Source/gd32f4xx_fmc.c ****     \brief    get the FMC state
 981:Drivers/GD32_F470_STD_Driver/Source/gd32f4xx_fmc.c ****     \param[in]  none
 982:Drivers/GD32_F470_STD_Driver/Source/gd32f4xx_fmc.c ****     \param[out] none
 983:Drivers/GD32_F470_STD_Driver/Source/gd32f4xx_fmc.c ****     \retval     state of FMC
 984:Drivers/GD32_F470_STD_Driver/Source/gd32f4xx_fmc.c ****       \arg        FMC_READY: the operation has been completed
 985:Drivers/GD32_F470_STD_Driver/Source/gd32f4xx_fmc.c ****       \arg        FMC_BUSY: the operation is in progress
 986:Drivers/GD32_F470_STD_Driver/Source/gd32f4xx_fmc.c ****       \arg        FMC_RDDERR: read D-bus protection error
 987:Drivers/GD32_F470_STD_Driver/Source/gd32f4xx_fmc.c ****       \arg        FMC_PGSERR: program sequence error
 988:Drivers/GD32_F470_STD_Driver/Source/gd32f4xx_fmc.c ****       \arg        FMC_PGMERR: program size not match error
 989:Drivers/GD32_F470_STD_Driver/Source/gd32f4xx_fmc.c ****       \arg        FMC_WPERR: erase/program protection error
 990:Drivers/GD32_F470_STD_Driver/Source/gd32f4xx_fmc.c ****       \arg        FMC_OPERR: operation error
 991:Drivers/GD32_F470_STD_Driver/Source/gd32f4xx_fmc.c **** */
ARM GAS  /tmp/ccSpQgdi.s 			page 32


 992:Drivers/GD32_F470_STD_Driver/Source/gd32f4xx_fmc.c **** fmc_state_enum fmc_state_get(void)
 993:Drivers/GD32_F470_STD_Driver/Source/gd32f4xx_fmc.c **** {
 806              		.loc 1 993 1 is_stmt 1 view -0
 807              		.cfi_startproc
 808              		@ args = 0, pretend = 0, frame = 0
 809              		@ frame_needed = 0, uses_anonymous_args = 0
 810              		@ link register save eliminated.
 994:Drivers/GD32_F470_STD_Driver/Source/gd32f4xx_fmc.c ****     fmc_state_enum fmc_state = FMC_READY;
 811              		.loc 1 994 5 view .LVU157
 812              	.LVL34:
 995:Drivers/GD32_F470_STD_Driver/Source/gd32f4xx_fmc.c ****     uint32_t temp_val = FMC_STAT;
 813              		.loc 1 995 5 view .LVU158
 814              		.loc 1 995 14 is_stmt 0 view .LVU159
 815 0000 114B     		ldr	r3, .L91
 816 0002 D3F80C3C 		ldr	r3, [r3, #3084]
 817              	.LVL35:
 996:Drivers/GD32_F470_STD_Driver/Source/gd32f4xx_fmc.c **** 
 997:Drivers/GD32_F470_STD_Driver/Source/gd32f4xx_fmc.c ****     if(RESET != (temp_val & FMC_FLAG_BUSY)) {
 818              		.loc 1 997 5 is_stmt 1 view .LVU160
 819              		.loc 1 997 7 is_stmt 0 view .LVU161
 820 0006 13F4803F 		tst	r3, #65536
 821 000a 12D1     		bne	.L84
 998:Drivers/GD32_F470_STD_Driver/Source/gd32f4xx_fmc.c ****         fmc_state = FMC_BUSY;
 999:Drivers/GD32_F470_STD_Driver/Source/gd32f4xx_fmc.c ****     } else if(RESET != (temp_val & FMC_FLAG_RDDERR)) {
 822              		.loc 1 999 12 is_stmt 1 view .LVU162
 823              		.loc 1 999 14 is_stmt 0 view .LVU163
 824 000c 13F4807F 		tst	r3, #256
 825 0010 11D1     		bne	.L85
1000:Drivers/GD32_F470_STD_Driver/Source/gd32f4xx_fmc.c ****         fmc_state = FMC_RDDERR;
1001:Drivers/GD32_F470_STD_Driver/Source/gd32f4xx_fmc.c ****     } else if(RESET != (temp_val & FMC_FLAG_PGSERR)) {
 826              		.loc 1 1001 12 is_stmt 1 view .LVU164
 827              		.loc 1 1001 14 is_stmt 0 view .LVU165
 828 0012 13F0800F 		tst	r3, #128
 829 0016 10D1     		bne	.L86
1002:Drivers/GD32_F470_STD_Driver/Source/gd32f4xx_fmc.c ****         fmc_state = FMC_PGSERR;
1003:Drivers/GD32_F470_STD_Driver/Source/gd32f4xx_fmc.c ****     } else if(RESET != (temp_val & FMC_FLAG_PGMERR)) {
 830              		.loc 1 1003 12 is_stmt 1 view .LVU166
 831              		.loc 1 1003 14 is_stmt 0 view .LVU167
 832 0018 13F0400F 		tst	r3, #64
 833 001c 0FD1     		bne	.L87
1004:Drivers/GD32_F470_STD_Driver/Source/gd32f4xx_fmc.c ****         fmc_state = FMC_PGMERR;
1005:Drivers/GD32_F470_STD_Driver/Source/gd32f4xx_fmc.c ****     } else if(RESET != (temp_val & FMC_FLAG_WPERR)) {
 834              		.loc 1 1005 12 is_stmt 1 view .LVU168
 835              		.loc 1 1005 14 is_stmt 0 view .LVU169
 836 001e 13F0100F 		tst	r3, #16
 837 0022 0ED1     		bne	.L88
1006:Drivers/GD32_F470_STD_Driver/Source/gd32f4xx_fmc.c ****         fmc_state = FMC_WPERR;
1007:Drivers/GD32_F470_STD_Driver/Source/gd32f4xx_fmc.c ****     } else if(RESET != (temp_val & FMC_FLAG_OPERR)) {
 838              		.loc 1 1007 12 is_stmt 1 view .LVU170
 839              		.loc 1 1007 14 is_stmt 0 view .LVU171
 840 0024 13F0020F 		tst	r3, #2
 841 0028 01D1     		bne	.L90
1008:Drivers/GD32_F470_STD_Driver/Source/gd32f4xx_fmc.c ****         fmc_state = FMC_OPERR;
1009:Drivers/GD32_F470_STD_Driver/Source/gd32f4xx_fmc.c ****     } else {
1010:Drivers/GD32_F470_STD_Driver/Source/gd32f4xx_fmc.c ****         fmc_state = FMC_READY;
 842              		.loc 1 1010 19 view .LVU172
 843 002a 0020     		movs	r0, #0
ARM GAS  /tmp/ccSpQgdi.s 			page 33


 844              	.LVL36:
1011:Drivers/GD32_F470_STD_Driver/Source/gd32f4xx_fmc.c ****     }
1012:Drivers/GD32_F470_STD_Driver/Source/gd32f4xx_fmc.c **** 
1013:Drivers/GD32_F470_STD_Driver/Source/gd32f4xx_fmc.c ****     /* return the FMC state */
1014:Drivers/GD32_F470_STD_Driver/Source/gd32f4xx_fmc.c ****     return fmc_state;
 845              		.loc 1 1014 5 is_stmt 1 view .LVU173
1015:Drivers/GD32_F470_STD_Driver/Source/gd32f4xx_fmc.c **** }
 846              		.loc 1 1015 1 is_stmt 0 view .LVU174
 847 002c 7047     		bx	lr
 848              	.LVL37:
 849              	.L90:
1008:Drivers/GD32_F470_STD_Driver/Source/gd32f4xx_fmc.c ****         fmc_state = FMC_OPERR;
 850              		.loc 1 1008 19 view .LVU175
 851 002e 0620     		movs	r0, #6
 852 0030 7047     		bx	lr
 853              	.L84:
 998:Drivers/GD32_F470_STD_Driver/Source/gd32f4xx_fmc.c ****     } else if(RESET != (temp_val & FMC_FLAG_RDDERR)) {
 854              		.loc 1 998 19 view .LVU176
 855 0032 0120     		movs	r0, #1
 856 0034 7047     		bx	lr
 857              	.L85:
1000:Drivers/GD32_F470_STD_Driver/Source/gd32f4xx_fmc.c ****     } else if(RESET != (temp_val & FMC_FLAG_PGSERR)) {
 858              		.loc 1 1000 19 view .LVU177
 859 0036 0220     		movs	r0, #2
 860 0038 7047     		bx	lr
 861              	.L86:
1002:Drivers/GD32_F470_STD_Driver/Source/gd32f4xx_fmc.c ****     } else if(RESET != (temp_val & FMC_FLAG_PGMERR)) {
 862              		.loc 1 1002 19 view .LVU178
 863 003a 0320     		movs	r0, #3
 864 003c 7047     		bx	lr
 865              	.L87:
1004:Drivers/GD32_F470_STD_Driver/Source/gd32f4xx_fmc.c ****     } else if(RESET != (temp_val & FMC_FLAG_WPERR)) {
 866              		.loc 1 1004 19 view .LVU179
 867 003e 0420     		movs	r0, #4
 868 0040 7047     		bx	lr
 869              	.L88:
1006:Drivers/GD32_F470_STD_Driver/Source/gd32f4xx_fmc.c ****     } else if(RESET != (temp_val & FMC_FLAG_OPERR)) {
 870              		.loc 1 1006 19 view .LVU180
 871 0042 0520     		movs	r0, #5
 872 0044 7047     		bx	lr
 873              	.L92:
 874 0046 00BF     		.align	2
 875              	.L91:
 876 0048 00300240 		.word	1073885184
 877              		.cfi_endproc
 878              	.LFE152:
 880              		.section	.text.fmc_ready_wait,"ax",%progbits
 881              		.align	1
 882              		.global	fmc_ready_wait
 883              		.syntax unified
 884              		.thumb
 885              		.thumb_func
 887              	fmc_ready_wait:
 888              	.LVL38:
 889              	.LFB153:
1016:Drivers/GD32_F470_STD_Driver/Source/gd32f4xx_fmc.c **** 
1017:Drivers/GD32_F470_STD_Driver/Source/gd32f4xx_fmc.c **** /*!
ARM GAS  /tmp/ccSpQgdi.s 			page 34


1018:Drivers/GD32_F470_STD_Driver/Source/gd32f4xx_fmc.c ****     \brief    check whether FMC is ready or not
1019:Drivers/GD32_F470_STD_Driver/Source/gd32f4xx_fmc.c ****     \param[in]  none
1020:Drivers/GD32_F470_STD_Driver/Source/gd32f4xx_fmc.c ****     \param[out] none
1021:Drivers/GD32_F470_STD_Driver/Source/gd32f4xx_fmc.c ****     \retval     state of FMC
1022:Drivers/GD32_F470_STD_Driver/Source/gd32f4xx_fmc.c ****       \arg        FMC_READY: the operation has been completed
1023:Drivers/GD32_F470_STD_Driver/Source/gd32f4xx_fmc.c ****       \arg        FMC_BUSY: the operation is in progress
1024:Drivers/GD32_F470_STD_Driver/Source/gd32f4xx_fmc.c ****       \arg        FMC_RDDERR: read D-bus protection error
1025:Drivers/GD32_F470_STD_Driver/Source/gd32f4xx_fmc.c ****       \arg        FMC_PGSERR: program sequence error
1026:Drivers/GD32_F470_STD_Driver/Source/gd32f4xx_fmc.c ****       \arg        FMC_PGMERR: program size not match error
1027:Drivers/GD32_F470_STD_Driver/Source/gd32f4xx_fmc.c ****       \arg        FMC_WPERR: erase/program protection error
1028:Drivers/GD32_F470_STD_Driver/Source/gd32f4xx_fmc.c ****       \arg        FMC_OPERR: operation error
1029:Drivers/GD32_F470_STD_Driver/Source/gd32f4xx_fmc.c ****       \arg        FMC_TOERR: timeout error
1030:Drivers/GD32_F470_STD_Driver/Source/gd32f4xx_fmc.c **** */
1031:Drivers/GD32_F470_STD_Driver/Source/gd32f4xx_fmc.c **** fmc_state_enum fmc_ready_wait(uint32_t timeout)
1032:Drivers/GD32_F470_STD_Driver/Source/gd32f4xx_fmc.c **** {
 890              		.loc 1 1032 1 is_stmt 1 view -0
 891              		.cfi_startproc
 892              		@ args = 0, pretend = 0, frame = 0
 893              		@ frame_needed = 0, uses_anonymous_args = 0
 894              		.loc 1 1032 1 is_stmt 0 view .LVU182
 895 0000 10B5     		push	{r4, lr}
 896              	.LCFI0:
 897              		.cfi_def_cfa_offset 8
 898              		.cfi_offset 4, -8
 899              		.cfi_offset 14, -4
 900 0002 0446     		mov	r4, r0
1033:Drivers/GD32_F470_STD_Driver/Source/gd32f4xx_fmc.c ****     fmc_state_enum fmc_state = FMC_BUSY;
 901              		.loc 1 1033 5 is_stmt 1 view .LVU183
 902              	.LVL39:
 903              	.L95:
1034:Drivers/GD32_F470_STD_Driver/Source/gd32f4xx_fmc.c **** 
1035:Drivers/GD32_F470_STD_Driver/Source/gd32f4xx_fmc.c ****     /* wait for FMC ready */
1036:Drivers/GD32_F470_STD_Driver/Source/gd32f4xx_fmc.c ****     do {
 904              		.loc 1 1036 5 discriminator 2 view .LVU184
1037:Drivers/GD32_F470_STD_Driver/Source/gd32f4xx_fmc.c ****         /* get FMC state */
1038:Drivers/GD32_F470_STD_Driver/Source/gd32f4xx_fmc.c ****         fmc_state = fmc_state_get();
 905              		.loc 1 1038 9 discriminator 2 view .LVU185
 906              		.loc 1 1038 21 is_stmt 0 discriminator 2 view .LVU186
 907 0004 FFF7FEFF 		bl	fmc_state_get
 908              	.LVL40:
1039:Drivers/GD32_F470_STD_Driver/Source/gd32f4xx_fmc.c ****         timeout--;
 909              		.loc 1 1039 9 is_stmt 1 discriminator 2 view .LVU187
 910              		.loc 1 1039 16 is_stmt 0 discriminator 2 view .LVU188
 911 0008 013C     		subs	r4, r4, #1
 912              	.LVL41:
1040:Drivers/GD32_F470_STD_Driver/Source/gd32f4xx_fmc.c ****     } while((FMC_BUSY == fmc_state) && (0U != timeout));
 913              		.loc 1 1040 12 is_stmt 1 discriminator 2 view .LVU189
 914              		.loc 1 1040 5 is_stmt 0 discriminator 2 view .LVU190
 915 000a 0128     		cmp	r0, #1
 916 000c 01D1     		bne	.L94
 917              		.loc 1 1040 37 discriminator 1 view .LVU191
 918 000e 002C     		cmp	r4, #0
 919 0010 F8D1     		bne	.L95
 920              	.L94:
1041:Drivers/GD32_F470_STD_Driver/Source/gd32f4xx_fmc.c **** 
1042:Drivers/GD32_F470_STD_Driver/Source/gd32f4xx_fmc.c ****     if(0U == timeout) {
 921              		.loc 1 1042 5 is_stmt 1 view .LVU192
ARM GAS  /tmp/ccSpQgdi.s 			page 35


 922              		.loc 1 1042 7 is_stmt 0 view .LVU193
 923 0012 04B1     		cbz	r4, .L99
 924              	.LVL42:
 925              	.L96:
1043:Drivers/GD32_F470_STD_Driver/Source/gd32f4xx_fmc.c ****         fmc_state = FMC_TOERR;
1044:Drivers/GD32_F470_STD_Driver/Source/gd32f4xx_fmc.c ****     }
1045:Drivers/GD32_F470_STD_Driver/Source/gd32f4xx_fmc.c **** 
1046:Drivers/GD32_F470_STD_Driver/Source/gd32f4xx_fmc.c ****     /* return the FMC state */
1047:Drivers/GD32_F470_STD_Driver/Source/gd32f4xx_fmc.c ****     return fmc_state;
 926              		.loc 1 1047 5 is_stmt 1 view .LVU194
1048:Drivers/GD32_F470_STD_Driver/Source/gd32f4xx_fmc.c **** }
 927              		.loc 1 1048 1 is_stmt 0 view .LVU195
 928 0014 10BD     		pop	{r4, pc}
 929              	.LVL43:
 930              	.L99:
1043:Drivers/GD32_F470_STD_Driver/Source/gd32f4xx_fmc.c ****         fmc_state = FMC_TOERR;
 931              		.loc 1 1043 19 view .LVU196
 932 0016 0720     		movs	r0, #7
 933              	.LVL44:
1043:Drivers/GD32_F470_STD_Driver/Source/gd32f4xx_fmc.c ****         fmc_state = FMC_TOERR;
 934              		.loc 1 1043 19 view .LVU197
 935 0018 FCE7     		b	.L96
 936              		.cfi_endproc
 937              	.LFE153:
 939              		.section	.text.fmc_page_erase,"ax",%progbits
 940              		.align	1
 941              		.global	fmc_page_erase
 942              		.syntax unified
 943              		.thumb
 944              		.thumb_func
 946              	fmc_page_erase:
 947              	.LVL45:
 948              	.LFB119:
 118:Drivers/GD32_F470_STD_Driver/Source/gd32f4xx_fmc.c ****     fmc_state_enum fmc_state = FMC_READY;
 949              		.loc 1 118 1 is_stmt 1 view -0
 950              		.cfi_startproc
 951              		@ args = 0, pretend = 0, frame = 0
 952              		@ frame_needed = 0, uses_anonymous_args = 0
 118:Drivers/GD32_F470_STD_Driver/Source/gd32f4xx_fmc.c ****     fmc_state_enum fmc_state = FMC_READY;
 953              		.loc 1 118 1 is_stmt 0 view .LVU199
 954 0000 38B5     		push	{r3, r4, r5, lr}
 955              	.LCFI1:
 956              		.cfi_def_cfa_offset 16
 957              		.cfi_offset 3, -16
 958              		.cfi_offset 4, -12
 959              		.cfi_offset 5, -8
 960              		.cfi_offset 14, -4
 961 0002 0546     		mov	r5, r0
 119:Drivers/GD32_F470_STD_Driver/Source/gd32f4xx_fmc.c **** 
 962              		.loc 1 119 5 is_stmt 1 view .LVU200
 963              	.LVL46:
 122:Drivers/GD32_F470_STD_Driver/Source/gd32f4xx_fmc.c **** 
 964              		.loc 1 122 5 view .LVU201
 122:Drivers/GD32_F470_STD_Driver/Source/gd32f4xx_fmc.c **** 
 965              		.loc 1 122 17 is_stmt 0 view .LVU202
 966 0004 6FF03040 		mvn	r0, #-1342177280
 967              	.LVL47:
ARM GAS  /tmp/ccSpQgdi.s 			page 36


 122:Drivers/GD32_F470_STD_Driver/Source/gd32f4xx_fmc.c **** 
 968              		.loc 1 122 17 view .LVU203
 969 0008 FFF7FEFF 		bl	fmc_ready_wait
 970              	.LVL48:
 124:Drivers/GD32_F470_STD_Driver/Source/gd32f4xx_fmc.c ****         /* unlock page erase operation */
 971              		.loc 1 124 5 is_stmt 1 view .LVU204
 124:Drivers/GD32_F470_STD_Driver/Source/gd32f4xx_fmc.c ****         /* unlock page erase operation */
 972              		.loc 1 124 7 is_stmt 0 view .LVU205
 973 000c 00B1     		cbz	r0, .L103
 974              	.LVL49:
 975              	.L101:
 142:Drivers/GD32_F470_STD_Driver/Source/gd32f4xx_fmc.c **** }
 976              		.loc 1 142 5 is_stmt 1 view .LVU206
 143:Drivers/GD32_F470_STD_Driver/Source/gd32f4xx_fmc.c **** 
 977              		.loc 1 143 1 is_stmt 0 view .LVU207
 978 000e 38BD     		pop	{r3, r4, r5, pc}
 979              	.LVL50:
 980              	.L103:
 126:Drivers/GD32_F470_STD_Driver/Source/gd32f4xx_fmc.c **** 
 981              		.loc 1 126 9 is_stmt 1 view .LVU208
 126:Drivers/GD32_F470_STD_Driver/Source/gd32f4xx_fmc.c **** 
 982              		.loc 1 126 19 is_stmt 0 view .LVU209
 983 0010 154C     		ldr	r4, .L104
 984 0012 164B     		ldr	r3, .L104+4
 985 0014 C4F8243C 		str	r3, [r4, #3108]
 129:Drivers/GD32_F470_STD_Driver/Source/gd32f4xx_fmc.c ****         FMC_CTL &= ~FMC_CTL_SN;
 986              		.loc 1 129 9 is_stmt 1 view .LVU210
 129:Drivers/GD32_F470_STD_Driver/Source/gd32f4xx_fmc.c ****         FMC_CTL &= ~FMC_CTL_SN;
 987              		.loc 1 129 31 is_stmt 0 view .LVU211
 988 0018 45F00045 		orr	r5, r5, #-2147483648
 989              	.LVL51:
 129:Drivers/GD32_F470_STD_Driver/Source/gd32f4xx_fmc.c ****         FMC_CTL &= ~FMC_CTL_SN;
 990              		.loc 1 129 19 view .LVU212
 991 001c C4F8205C 		str	r5, [r4, #3104]
 130:Drivers/GD32_F470_STD_Driver/Source/gd32f4xx_fmc.c ****         FMC_CTL |= FMC_CTL_SER;
 992              		.loc 1 130 9 is_stmt 1 view .LVU213
 130:Drivers/GD32_F470_STD_Driver/Source/gd32f4xx_fmc.c ****         FMC_CTL |= FMC_CTL_SER;
 993              		.loc 1 130 17 is_stmt 0 view .LVU214
 994 0020 D4F8103C 		ldr	r3, [r4, #3088]
 995 0024 23F0F803 		bic	r3, r3, #248
 996 0028 C4F8103C 		str	r3, [r4, #3088]
 131:Drivers/GD32_F470_STD_Driver/Source/gd32f4xx_fmc.c ****         FMC_CTL |= FMC_CTL_START;
 997              		.loc 1 131 9 is_stmt 1 view .LVU215
 131:Drivers/GD32_F470_STD_Driver/Source/gd32f4xx_fmc.c ****         FMC_CTL |= FMC_CTL_START;
 998              		.loc 1 131 17 is_stmt 0 view .LVU216
 999 002c D4F8103C 		ldr	r3, [r4, #3088]
 1000 0030 43F00203 		orr	r3, r3, #2
 1001 0034 C4F8103C 		str	r3, [r4, #3088]
 132:Drivers/GD32_F470_STD_Driver/Source/gd32f4xx_fmc.c **** 
 1002              		.loc 1 132 9 is_stmt 1 view .LVU217
 132:Drivers/GD32_F470_STD_Driver/Source/gd32f4xx_fmc.c **** 
 1003              		.loc 1 132 17 is_stmt 0 view .LVU218
 1004 0038 D4F8103C 		ldr	r3, [r4, #3088]
 1005 003c 43F48033 		orr	r3, r3, #65536
 1006 0040 C4F8103C 		str	r3, [r4, #3088]
 135:Drivers/GD32_F470_STD_Driver/Source/gd32f4xx_fmc.c **** 
 1007              		.loc 1 135 9 is_stmt 1 view .LVU219
ARM GAS  /tmp/ccSpQgdi.s 			page 37


 135:Drivers/GD32_F470_STD_Driver/Source/gd32f4xx_fmc.c **** 
 1008              		.loc 1 135 21 is_stmt 0 view .LVU220
 1009 0044 6FF03040 		mvn	r0, #-1342177280
 1010 0048 FFF7FEFF 		bl	fmc_ready_wait
 1011              	.LVL52:
 137:Drivers/GD32_F470_STD_Driver/Source/gd32f4xx_fmc.c ****         FMC_CTL &= ~FMC_CTL_SER;
 1012              		.loc 1 137 9 is_stmt 1 view .LVU221
 137:Drivers/GD32_F470_STD_Driver/Source/gd32f4xx_fmc.c ****         FMC_CTL &= ~FMC_CTL_SER;
 1013              		.loc 1 137 19 is_stmt 0 view .LVU222
 1014 004c D4F8203C 		ldr	r3, [r4, #3104]
 1015 0050 23F00043 		bic	r3, r3, #-2147483648
 1016 0054 C4F8203C 		str	r3, [r4, #3104]
 138:Drivers/GD32_F470_STD_Driver/Source/gd32f4xx_fmc.c ****     }
 1017              		.loc 1 138 9 is_stmt 1 view .LVU223
 138:Drivers/GD32_F470_STD_Driver/Source/gd32f4xx_fmc.c ****     }
 1018              		.loc 1 138 17 is_stmt 0 view .LVU224
 1019 0058 D4F8103C 		ldr	r3, [r4, #3088]
 1020 005c 23F00203 		bic	r3, r3, #2
 1021 0060 C4F8103C 		str	r3, [r4, #3088]
 1022 0064 D3E7     		b	.L101
 1023              	.L105:
 1024 0066 00BF     		.align	2
 1025              	.L104:
 1026 0068 00300240 		.word	1073885184
 1027 006c D6C7B8A9 		.word	-1447508010
 1028              		.cfi_endproc
 1029              	.LFE119:
 1031              		.section	.text.fmc_sector_erase,"ax",%progbits
 1032              		.align	1
 1033              		.global	fmc_sector_erase
 1034              		.syntax unified
 1035              		.thumb
 1036              		.thumb_func
 1038              	fmc_sector_erase:
 1039              	.LVL53:
 1040              	.LFB120:
 191:Drivers/GD32_F470_STD_Driver/Source/gd32f4xx_fmc.c ****     fmc_state_enum fmc_state = FMC_READY;
 1041              		.loc 1 191 1 is_stmt 1 view -0
 1042              		.cfi_startproc
 1043              		@ args = 0, pretend = 0, frame = 0
 1044              		@ frame_needed = 0, uses_anonymous_args = 0
 191:Drivers/GD32_F470_STD_Driver/Source/gd32f4xx_fmc.c ****     fmc_state_enum fmc_state = FMC_READY;
 1045              		.loc 1 191 1 is_stmt 0 view .LVU226
 1046 0000 38B5     		push	{r3, r4, r5, lr}
 1047              	.LCFI2:
 1048              		.cfi_def_cfa_offset 16
 1049              		.cfi_offset 3, -16
 1050              		.cfi_offset 4, -12
 1051              		.cfi_offset 5, -8
 1052              		.cfi_offset 14, -4
 1053 0002 0546     		mov	r5, r0
 192:Drivers/GD32_F470_STD_Driver/Source/gd32f4xx_fmc.c ****     /* wait for the FMC ready */
 1054              		.loc 1 192 5 is_stmt 1 view .LVU227
 1055              	.LVL54:
 194:Drivers/GD32_F470_STD_Driver/Source/gd32f4xx_fmc.c **** 
 1056              		.loc 1 194 5 view .LVU228
 194:Drivers/GD32_F470_STD_Driver/Source/gd32f4xx_fmc.c **** 
ARM GAS  /tmp/ccSpQgdi.s 			page 38


 1057              		.loc 1 194 17 is_stmt 0 view .LVU229
 1058 0004 6FF03040 		mvn	r0, #-1342177280
 1059              	.LVL55:
 194:Drivers/GD32_F470_STD_Driver/Source/gd32f4xx_fmc.c **** 
 1060              		.loc 1 194 17 view .LVU230
 1061 0008 FFF7FEFF 		bl	fmc_ready_wait
 1062              	.LVL56:
 196:Drivers/GD32_F470_STD_Driver/Source/gd32f4xx_fmc.c ****         /* start sector erase */
 1063              		.loc 1 196 5 is_stmt 1 view .LVU231
 196:Drivers/GD32_F470_STD_Driver/Source/gd32f4xx_fmc.c ****         /* start sector erase */
 1064              		.loc 1 196 7 is_stmt 0 view .LVU232
 1065 000c 00B1     		cbz	r0, .L109
 1066              	.L107:
 1067              	.LVL57:
 211:Drivers/GD32_F470_STD_Driver/Source/gd32f4xx_fmc.c **** }
 1068              		.loc 1 211 5 is_stmt 1 view .LVU233
 212:Drivers/GD32_F470_STD_Driver/Source/gd32f4xx_fmc.c **** 
 1069              		.loc 1 212 1 is_stmt 0 view .LVU234
 1070 000e 38BD     		pop	{r3, r4, r5, pc}
 1071              	.LVL58:
 1072              	.L109:
 198:Drivers/GD32_F470_STD_Driver/Source/gd32f4xx_fmc.c ****         FMC_CTL |= (FMC_CTL_SER | fmc_sector);
 1073              		.loc 1 198 9 is_stmt 1 view .LVU235
 198:Drivers/GD32_F470_STD_Driver/Source/gd32f4xx_fmc.c ****         FMC_CTL |= (FMC_CTL_SER | fmc_sector);
 1074              		.loc 1 198 17 is_stmt 0 view .LVU236
 1075 0010 124C     		ldr	r4, .L110
 1076 0012 D4F8103C 		ldr	r3, [r4, #3088]
 1077 0016 23F0F803 		bic	r3, r3, #248
 1078 001a C4F8103C 		str	r3, [r4, #3088]
 199:Drivers/GD32_F470_STD_Driver/Source/gd32f4xx_fmc.c ****         FMC_CTL |= FMC_CTL_START;
 1079              		.loc 1 199 9 is_stmt 1 view .LVU237
 199:Drivers/GD32_F470_STD_Driver/Source/gd32f4xx_fmc.c ****         FMC_CTL |= FMC_CTL_START;
 1080              		.loc 1 199 17 is_stmt 0 view .LVU238
 1081 001e D4F8100C 		ldr	r0, [r4, #3088]
 1082 0022 2843     		orrs	r0, r0, r5
 1083 0024 40F00200 		orr	r0, r0, #2
 1084 0028 C4F8100C 		str	r0, [r4, #3088]
 200:Drivers/GD32_F470_STD_Driver/Source/gd32f4xx_fmc.c **** 
 1085              		.loc 1 200 9 is_stmt 1 view .LVU239
 200:Drivers/GD32_F470_STD_Driver/Source/gd32f4xx_fmc.c **** 
 1086              		.loc 1 200 17 is_stmt 0 view .LVU240
 1087 002c D4F8103C 		ldr	r3, [r4, #3088]
 1088 0030 43F48033 		orr	r3, r3, #65536
 1089 0034 C4F8103C 		str	r3, [r4, #3088]
 203:Drivers/GD32_F470_STD_Driver/Source/gd32f4xx_fmc.c **** 
 1090              		.loc 1 203 9 is_stmt 1 view .LVU241
 203:Drivers/GD32_F470_STD_Driver/Source/gd32f4xx_fmc.c **** 
 1091              		.loc 1 203 21 is_stmt 0 view .LVU242
 1092 0038 6FF03040 		mvn	r0, #-1342177280
 1093 003c FFF7FEFF 		bl	fmc_ready_wait
 1094              	.LVL59:
 206:Drivers/GD32_F470_STD_Driver/Source/gd32f4xx_fmc.c ****         FMC_CTL &= ~FMC_CTL_SN;
 1095              		.loc 1 206 9 is_stmt 1 view .LVU243
 206:Drivers/GD32_F470_STD_Driver/Source/gd32f4xx_fmc.c ****         FMC_CTL &= ~FMC_CTL_SN;
 1096              		.loc 1 206 17 is_stmt 0 view .LVU244
 1097 0040 D4F8103C 		ldr	r3, [r4, #3088]
 1098 0044 23F00203 		bic	r3, r3, #2
ARM GAS  /tmp/ccSpQgdi.s 			page 39


 1099 0048 C4F8103C 		str	r3, [r4, #3088]
 207:Drivers/GD32_F470_STD_Driver/Source/gd32f4xx_fmc.c ****     }
 1100              		.loc 1 207 9 is_stmt 1 view .LVU245
 207:Drivers/GD32_F470_STD_Driver/Source/gd32f4xx_fmc.c ****     }
 1101              		.loc 1 207 17 is_stmt 0 view .LVU246
 1102 004c D4F8103C 		ldr	r3, [r4, #3088]
 1103 0050 23F0F803 		bic	r3, r3, #248
 1104 0054 C4F8103C 		str	r3, [r4, #3088]
 1105 0058 D9E7     		b	.L107
 1106              	.L111:
 1107 005a 00BF     		.align	2
 1108              	.L110:
 1109 005c 00300240 		.word	1073885184
 1110              		.cfi_endproc
 1111              	.LFE120:
 1113              		.section	.text.fmc_mass_erase,"ax",%progbits
 1114              		.align	1
 1115              		.global	fmc_mass_erase
 1116              		.syntax unified
 1117              		.thumb
 1118              		.thumb_func
 1120              	fmc_mass_erase:
 1121              	.LFB121:
 229:Drivers/GD32_F470_STD_Driver/Source/gd32f4xx_fmc.c ****     fmc_state_enum fmc_state = FMC_READY;
 1122              		.loc 1 229 1 is_stmt 1 view -0
 1123              		.cfi_startproc
 1124              		@ args = 0, pretend = 0, frame = 0
 1125              		@ frame_needed = 0, uses_anonymous_args = 0
 1126 0000 10B5     		push	{r4, lr}
 1127              	.LCFI3:
 1128              		.cfi_def_cfa_offset 8
 1129              		.cfi_offset 4, -8
 1130              		.cfi_offset 14, -4
 230:Drivers/GD32_F470_STD_Driver/Source/gd32f4xx_fmc.c ****     /* wait for the FMC ready */
 1131              		.loc 1 230 5 view .LVU248
 1132              	.LVL60:
 232:Drivers/GD32_F470_STD_Driver/Source/gd32f4xx_fmc.c **** 
 1133              		.loc 1 232 5 view .LVU249
 232:Drivers/GD32_F470_STD_Driver/Source/gd32f4xx_fmc.c **** 
 1134              		.loc 1 232 17 is_stmt 0 view .LVU250
 1135 0002 6FF03040 		mvn	r0, #-1342177280
 1136 0006 FFF7FEFF 		bl	fmc_ready_wait
 1137              	.LVL61:
 234:Drivers/GD32_F470_STD_Driver/Source/gd32f4xx_fmc.c ****         /* start whole chip erase */
 1138              		.loc 1 234 5 is_stmt 1 view .LVU251
 234:Drivers/GD32_F470_STD_Driver/Source/gd32f4xx_fmc.c ****         /* start whole chip erase */
 1139              		.loc 1 234 7 is_stmt 0 view .LVU252
 1140 000a 00B1     		cbz	r0, .L115
 1141              	.L113:
 1142              	.LVL62:
 247:Drivers/GD32_F470_STD_Driver/Source/gd32f4xx_fmc.c **** }
 1143              		.loc 1 247 5 is_stmt 1 view .LVU253
 248:Drivers/GD32_F470_STD_Driver/Source/gd32f4xx_fmc.c **** 
 1144              		.loc 1 248 1 is_stmt 0 view .LVU254
 1145 000c 10BD     		pop	{r4, pc}
 1146              	.LVL63:
 1147              	.L115:
ARM GAS  /tmp/ccSpQgdi.s 			page 40


 236:Drivers/GD32_F470_STD_Driver/Source/gd32f4xx_fmc.c ****         FMC_CTL |= FMC_CTL_START;
 1148              		.loc 1 236 9 is_stmt 1 view .LVU255
 236:Drivers/GD32_F470_STD_Driver/Source/gd32f4xx_fmc.c ****         FMC_CTL |= FMC_CTL_START;
 1149              		.loc 1 236 17 is_stmt 0 view .LVU256
 1150 000e 0E4C     		ldr	r4, .L116
 1151 0010 D4F8103C 		ldr	r3, [r4, #3088]
 1152 0014 43F40043 		orr	r3, r3, #32768
 1153 0018 43F00403 		orr	r3, r3, #4
 1154 001c C4F8103C 		str	r3, [r4, #3088]
 237:Drivers/GD32_F470_STD_Driver/Source/gd32f4xx_fmc.c **** 
 1155              		.loc 1 237 9 is_stmt 1 view .LVU257
 237:Drivers/GD32_F470_STD_Driver/Source/gd32f4xx_fmc.c **** 
 1156              		.loc 1 237 17 is_stmt 0 view .LVU258
 1157 0020 D4F8103C 		ldr	r3, [r4, #3088]
 1158 0024 43F48033 		orr	r3, r3, #65536
 1159 0028 C4F8103C 		str	r3, [r4, #3088]
 240:Drivers/GD32_F470_STD_Driver/Source/gd32f4xx_fmc.c **** 
 1160              		.loc 1 240 9 is_stmt 1 view .LVU259
 240:Drivers/GD32_F470_STD_Driver/Source/gd32f4xx_fmc.c **** 
 1161              		.loc 1 240 21 is_stmt 0 view .LVU260
 1162 002c 6FF03040 		mvn	r0, #-1342177280
 1163 0030 FFF7FEFF 		bl	fmc_ready_wait
 1164              	.LVL64:
 243:Drivers/GD32_F470_STD_Driver/Source/gd32f4xx_fmc.c ****     }
 1165              		.loc 1 243 9 is_stmt 1 view .LVU261
 243:Drivers/GD32_F470_STD_Driver/Source/gd32f4xx_fmc.c ****     }
 1166              		.loc 1 243 17 is_stmt 0 view .LVU262
 1167 0034 D4F8103C 		ldr	r3, [r4, #3088]
 1168 0038 23F40043 		bic	r3, r3, #32768
 1169 003c 23F00403 		bic	r3, r3, #4
 1170 0040 C4F8103C 		str	r3, [r4, #3088]
 1171 0044 E2E7     		b	.L113
 1172              	.L117:
 1173 0046 00BF     		.align	2
 1174              	.L116:
 1175 0048 00300240 		.word	1073885184
 1176              		.cfi_endproc
 1177              	.LFE121:
 1179              		.section	.text.fmc_bank0_erase,"ax",%progbits
 1180              		.align	1
 1181              		.global	fmc_bank0_erase
 1182              		.syntax unified
 1183              		.thumb
 1184              		.thumb_func
 1186              	fmc_bank0_erase:
 1187              	.LFB122:
 265:Drivers/GD32_F470_STD_Driver/Source/gd32f4xx_fmc.c ****     fmc_state_enum fmc_state = FMC_READY;
 1188              		.loc 1 265 1 is_stmt 1 view -0
 1189              		.cfi_startproc
 1190              		@ args = 0, pretend = 0, frame = 0
 1191              		@ frame_needed = 0, uses_anonymous_args = 0
 1192 0000 10B5     		push	{r4, lr}
 1193              	.LCFI4:
 1194              		.cfi_def_cfa_offset 8
 1195              		.cfi_offset 4, -8
 1196              		.cfi_offset 14, -4
 266:Drivers/GD32_F470_STD_Driver/Source/gd32f4xx_fmc.c ****     /* wait for the FMC ready */
ARM GAS  /tmp/ccSpQgdi.s 			page 41


 1197              		.loc 1 266 5 view .LVU264
 1198              	.LVL65:
 268:Drivers/GD32_F470_STD_Driver/Source/gd32f4xx_fmc.c **** 
 1199              		.loc 1 268 5 view .LVU265
 268:Drivers/GD32_F470_STD_Driver/Source/gd32f4xx_fmc.c **** 
 1200              		.loc 1 268 17 is_stmt 0 view .LVU266
 1201 0002 6FF03040 		mvn	r0, #-1342177280
 1202 0006 FFF7FEFF 		bl	fmc_ready_wait
 1203              	.LVL66:
 270:Drivers/GD32_F470_STD_Driver/Source/gd32f4xx_fmc.c ****         /* start FMC bank0 erase */
 1204              		.loc 1 270 5 is_stmt 1 view .LVU267
 270:Drivers/GD32_F470_STD_Driver/Source/gd32f4xx_fmc.c ****         /* start FMC bank0 erase */
 1205              		.loc 1 270 7 is_stmt 0 view .LVU268
 1206 000a 00B1     		cbz	r0, .L121
 1207              	.L119:
 1208              	.LVL67:
 283:Drivers/GD32_F470_STD_Driver/Source/gd32f4xx_fmc.c **** }
 1209              		.loc 1 283 5 is_stmt 1 view .LVU269
 284:Drivers/GD32_F470_STD_Driver/Source/gd32f4xx_fmc.c **** 
 1210              		.loc 1 284 1 is_stmt 0 view .LVU270
 1211 000c 10BD     		pop	{r4, pc}
 1212              	.LVL68:
 1213              	.L121:
 272:Drivers/GD32_F470_STD_Driver/Source/gd32f4xx_fmc.c ****         FMC_CTL |= FMC_CTL_START;
 1214              		.loc 1 272 9 is_stmt 1 view .LVU271
 272:Drivers/GD32_F470_STD_Driver/Source/gd32f4xx_fmc.c ****         FMC_CTL |= FMC_CTL_START;
 1215              		.loc 1 272 17 is_stmt 0 view .LVU272
 1216 000e 0C4C     		ldr	r4, .L122
 1217 0010 D4F8103C 		ldr	r3, [r4, #3088]
 1218 0014 43F00403 		orr	r3, r3, #4
 1219 0018 C4F8103C 		str	r3, [r4, #3088]
 273:Drivers/GD32_F470_STD_Driver/Source/gd32f4xx_fmc.c **** 
 1220              		.loc 1 273 9 is_stmt 1 view .LVU273
 273:Drivers/GD32_F470_STD_Driver/Source/gd32f4xx_fmc.c **** 
 1221              		.loc 1 273 17 is_stmt 0 view .LVU274
 1222 001c D4F8103C 		ldr	r3, [r4, #3088]
 1223 0020 43F48033 		orr	r3, r3, #65536
 1224 0024 C4F8103C 		str	r3, [r4, #3088]
 276:Drivers/GD32_F470_STD_Driver/Source/gd32f4xx_fmc.c **** 
 1225              		.loc 1 276 9 is_stmt 1 view .LVU275
 276:Drivers/GD32_F470_STD_Driver/Source/gd32f4xx_fmc.c **** 
 1226              		.loc 1 276 21 is_stmt 0 view .LVU276
 1227 0028 6FF03040 		mvn	r0, #-1342177280
 1228 002c FFF7FEFF 		bl	fmc_ready_wait
 1229              	.LVL69:
 279:Drivers/GD32_F470_STD_Driver/Source/gd32f4xx_fmc.c ****     }
 1230              		.loc 1 279 9 is_stmt 1 view .LVU277
 279:Drivers/GD32_F470_STD_Driver/Source/gd32f4xx_fmc.c ****     }
 1231              		.loc 1 279 17 is_stmt 0 view .LVU278
 1232 0030 D4F8103C 		ldr	r3, [r4, #3088]
 1233 0034 23F00403 		bic	r3, r3, #4
 1234 0038 C4F8103C 		str	r3, [r4, #3088]
 1235 003c E6E7     		b	.L119
 1236              	.L123:
 1237 003e 00BF     		.align	2
 1238              	.L122:
 1239 0040 00300240 		.word	1073885184
ARM GAS  /tmp/ccSpQgdi.s 			page 42


 1240              		.cfi_endproc
 1241              	.LFE122:
 1243              		.section	.text.fmc_bank1_erase,"ax",%progbits
 1244              		.align	1
 1245              		.global	fmc_bank1_erase
 1246              		.syntax unified
 1247              		.thumb
 1248              		.thumb_func
 1250              	fmc_bank1_erase:
 1251              	.LFB123:
 301:Drivers/GD32_F470_STD_Driver/Source/gd32f4xx_fmc.c ****     fmc_state_enum fmc_state = FMC_READY;
 1252              		.loc 1 301 1 is_stmt 1 view -0
 1253              		.cfi_startproc
 1254              		@ args = 0, pretend = 0, frame = 0
 1255              		@ frame_needed = 0, uses_anonymous_args = 0
 1256 0000 10B5     		push	{r4, lr}
 1257              	.LCFI5:
 1258              		.cfi_def_cfa_offset 8
 1259              		.cfi_offset 4, -8
 1260              		.cfi_offset 14, -4
 302:Drivers/GD32_F470_STD_Driver/Source/gd32f4xx_fmc.c ****     /* wait for the FMC ready */
 1261              		.loc 1 302 5 view .LVU280
 1262              	.LVL70:
 304:Drivers/GD32_F470_STD_Driver/Source/gd32f4xx_fmc.c **** 
 1263              		.loc 1 304 5 view .LVU281
 304:Drivers/GD32_F470_STD_Driver/Source/gd32f4xx_fmc.c **** 
 1264              		.loc 1 304 17 is_stmt 0 view .LVU282
 1265 0002 6FF03040 		mvn	r0, #-1342177280
 1266 0006 FFF7FEFF 		bl	fmc_ready_wait
 1267              	.LVL71:
 306:Drivers/GD32_F470_STD_Driver/Source/gd32f4xx_fmc.c ****         /* start FMC bank1 erase */
 1268              		.loc 1 306 5 is_stmt 1 view .LVU283
 306:Drivers/GD32_F470_STD_Driver/Source/gd32f4xx_fmc.c ****         /* start FMC bank1 erase */
 1269              		.loc 1 306 7 is_stmt 0 view .LVU284
 1270 000a 00B1     		cbz	r0, .L127
 1271              	.L125:
 1272              	.LVL72:
 319:Drivers/GD32_F470_STD_Driver/Source/gd32f4xx_fmc.c **** }
 1273              		.loc 1 319 5 is_stmt 1 view .LVU285
 320:Drivers/GD32_F470_STD_Driver/Source/gd32f4xx_fmc.c **** 
 1274              		.loc 1 320 1 is_stmt 0 view .LVU286
 1275 000c 10BD     		pop	{r4, pc}
 1276              	.LVL73:
 1277              	.L127:
 308:Drivers/GD32_F470_STD_Driver/Source/gd32f4xx_fmc.c ****         FMC_CTL |= FMC_CTL_START;
 1278              		.loc 1 308 9 is_stmt 1 view .LVU287
 308:Drivers/GD32_F470_STD_Driver/Source/gd32f4xx_fmc.c ****         FMC_CTL |= FMC_CTL_START;
 1279              		.loc 1 308 17 is_stmt 0 view .LVU288
 1280 000e 0C4C     		ldr	r4, .L128
 1281 0010 D4F8103C 		ldr	r3, [r4, #3088]
 1282 0014 43F40043 		orr	r3, r3, #32768
 1283 0018 C4F8103C 		str	r3, [r4, #3088]
 309:Drivers/GD32_F470_STD_Driver/Source/gd32f4xx_fmc.c **** 
 1284              		.loc 1 309 9 is_stmt 1 view .LVU289
 309:Drivers/GD32_F470_STD_Driver/Source/gd32f4xx_fmc.c **** 
 1285              		.loc 1 309 17 is_stmt 0 view .LVU290
 1286 001c D4F8103C 		ldr	r3, [r4, #3088]
ARM GAS  /tmp/ccSpQgdi.s 			page 43


 1287 0020 43F48033 		orr	r3, r3, #65536
 1288 0024 C4F8103C 		str	r3, [r4, #3088]
 312:Drivers/GD32_F470_STD_Driver/Source/gd32f4xx_fmc.c **** 
 1289              		.loc 1 312 9 is_stmt 1 view .LVU291
 312:Drivers/GD32_F470_STD_Driver/Source/gd32f4xx_fmc.c **** 
 1290              		.loc 1 312 21 is_stmt 0 view .LVU292
 1291 0028 6FF03040 		mvn	r0, #-1342177280
 1292 002c FFF7FEFF 		bl	fmc_ready_wait
 1293              	.LVL74:
 315:Drivers/GD32_F470_STD_Driver/Source/gd32f4xx_fmc.c ****     }
 1294              		.loc 1 315 9 is_stmt 1 view .LVU293
 315:Drivers/GD32_F470_STD_Driver/Source/gd32f4xx_fmc.c ****     }
 1295              		.loc 1 315 17 is_stmt 0 view .LVU294
 1296 0030 D4F8103C 		ldr	r3, [r4, #3088]
 1297 0034 23F40043 		bic	r3, r3, #32768
 1298 0038 C4F8103C 		str	r3, [r4, #3088]
 1299 003c E6E7     		b	.L125
 1300              	.L129:
 1301 003e 00BF     		.align	2
 1302              	.L128:
 1303 0040 00300240 		.word	1073885184
 1304              		.cfi_endproc
 1305              	.LFE123:
 1307              		.section	.text.fmc_word_program,"ax",%progbits
 1308              		.align	1
 1309              		.global	fmc_word_program
 1310              		.syntax unified
 1311              		.thumb
 1312              		.thumb_func
 1314              	fmc_word_program:
 1315              	.LVL75:
 1316              	.LFB124:
 338:Drivers/GD32_F470_STD_Driver/Source/gd32f4xx_fmc.c ****     fmc_state_enum fmc_state = FMC_READY;
 1317              		.loc 1 338 1 is_stmt 1 view -0
 1318              		.cfi_startproc
 1319              		@ args = 0, pretend = 0, frame = 0
 1320              		@ frame_needed = 0, uses_anonymous_args = 0
 338:Drivers/GD32_F470_STD_Driver/Source/gd32f4xx_fmc.c ****     fmc_state_enum fmc_state = FMC_READY;
 1321              		.loc 1 338 1 is_stmt 0 view .LVU296
 1322 0000 70B5     		push	{r4, r5, r6, lr}
 1323              	.LCFI6:
 1324              		.cfi_def_cfa_offset 16
 1325              		.cfi_offset 4, -16
 1326              		.cfi_offset 5, -12
 1327              		.cfi_offset 6, -8
 1328              		.cfi_offset 14, -4
 1329 0002 0546     		mov	r5, r0
 1330 0004 0C46     		mov	r4, r1
 339:Drivers/GD32_F470_STD_Driver/Source/gd32f4xx_fmc.c ****     /* wait for the FMC ready */
 1331              		.loc 1 339 5 is_stmt 1 view .LVU297
 1332              	.LVL76:
 341:Drivers/GD32_F470_STD_Driver/Source/gd32f4xx_fmc.c **** 
 1333              		.loc 1 341 5 view .LVU298
 341:Drivers/GD32_F470_STD_Driver/Source/gd32f4xx_fmc.c **** 
 1334              		.loc 1 341 17 is_stmt 0 view .LVU299
 1335 0006 6FF03040 		mvn	r0, #-1342177280
 1336              	.LVL77:
ARM GAS  /tmp/ccSpQgdi.s 			page 44


 341:Drivers/GD32_F470_STD_Driver/Source/gd32f4xx_fmc.c **** 
 1337              		.loc 1 341 17 view .LVU300
 1338 000a FFF7FEFF 		bl	fmc_ready_wait
 1339              	.LVL78:
 343:Drivers/GD32_F470_STD_Driver/Source/gd32f4xx_fmc.c ****         /* set the PG bit to start program */
 1340              		.loc 1 343 5 is_stmt 1 view .LVU301
 343:Drivers/GD32_F470_STD_Driver/Source/gd32f4xx_fmc.c ****         /* set the PG bit to start program */
 1341              		.loc 1 343 7 is_stmt 0 view .LVU302
 1342 000e 00B1     		cbz	r0, .L133
 1343              	.L131:
 1344              	.LVL79:
 359:Drivers/GD32_F470_STD_Driver/Source/gd32f4xx_fmc.c **** }
 1345              		.loc 1 359 5 is_stmt 1 view .LVU303
 360:Drivers/GD32_F470_STD_Driver/Source/gd32f4xx_fmc.c **** 
 1346              		.loc 1 360 1 is_stmt 0 view .LVU304
 1347 0010 70BD     		pop	{r4, r5, r6, pc}
 1348              	.LVL80:
 1349              	.L133:
 345:Drivers/GD32_F470_STD_Driver/Source/gd32f4xx_fmc.c ****         FMC_CTL |= CTL_PSZ_WORD;
 1350              		.loc 1 345 9 is_stmt 1 view .LVU305
 345:Drivers/GD32_F470_STD_Driver/Source/gd32f4xx_fmc.c ****         FMC_CTL |= CTL_PSZ_WORD;
 1351              		.loc 1 345 17 is_stmt 0 view .LVU306
 1352 0012 0F4E     		ldr	r6, .L134
 1353 0014 D6F8103C 		ldr	r3, [r6, #3088]
 1354 0018 23F44073 		bic	r3, r3, #768
 1355 001c C6F8103C 		str	r3, [r6, #3088]
 346:Drivers/GD32_F470_STD_Driver/Source/gd32f4xx_fmc.c ****         FMC_CTL |= FMC_CTL_PG;
 1356              		.loc 1 346 9 is_stmt 1 view .LVU307
 346:Drivers/GD32_F470_STD_Driver/Source/gd32f4xx_fmc.c ****         FMC_CTL |= FMC_CTL_PG;
 1357              		.loc 1 346 17 is_stmt 0 view .LVU308
 1358 0020 D6F8103C 		ldr	r3, [r6, #3088]
 1359 0024 43F40073 		orr	r3, r3, #512
 1360 0028 C6F8103C 		str	r3, [r6, #3088]
 347:Drivers/GD32_F470_STD_Driver/Source/gd32f4xx_fmc.c **** 
 1361              		.loc 1 347 9 is_stmt 1 view .LVU309
 347:Drivers/GD32_F470_STD_Driver/Source/gd32f4xx_fmc.c **** 
 1362              		.loc 1 347 17 is_stmt 0 view .LVU310
 1363 002c D6F8103C 		ldr	r3, [r6, #3088]
 1364 0030 43F00103 		orr	r3, r3, #1
 1365 0034 C6F8103C 		str	r3, [r6, #3088]
 349:Drivers/GD32_F470_STD_Driver/Source/gd32f4xx_fmc.c **** 
 1366              		.loc 1 349 9 is_stmt 1 view .LVU311
 349:Drivers/GD32_F470_STD_Driver/Source/gd32f4xx_fmc.c **** 
 1367              		.loc 1 349 24 is_stmt 0 view .LVU312
 1368 0038 2C60     		str	r4, [r5]
 352:Drivers/GD32_F470_STD_Driver/Source/gd32f4xx_fmc.c **** 
 1369              		.loc 1 352 9 is_stmt 1 view .LVU313
 352:Drivers/GD32_F470_STD_Driver/Source/gd32f4xx_fmc.c **** 
 1370              		.loc 1 352 21 is_stmt 0 view .LVU314
 1371 003a 6FF03040 		mvn	r0, #-1342177280
 1372 003e FFF7FEFF 		bl	fmc_ready_wait
 1373              	.LVL81:
 355:Drivers/GD32_F470_STD_Driver/Source/gd32f4xx_fmc.c ****     }
 1374              		.loc 1 355 9 is_stmt 1 view .LVU315
 355:Drivers/GD32_F470_STD_Driver/Source/gd32f4xx_fmc.c ****     }
 1375              		.loc 1 355 17 is_stmt 0 view .LVU316
 1376 0042 D6F8103C 		ldr	r3, [r6, #3088]
ARM GAS  /tmp/ccSpQgdi.s 			page 45


 1377 0046 23F00103 		bic	r3, r3, #1
 1378 004a C6F8103C 		str	r3, [r6, #3088]
 1379 004e DFE7     		b	.L131
 1380              	.L135:
 1381              		.align	2
 1382              	.L134:
 1383 0050 00300240 		.word	1073885184
 1384              		.cfi_endproc
 1385              	.LFE124:
 1387              		.section	.text.fmc_halfword_program,"ax",%progbits
 1388              		.align	1
 1389              		.global	fmc_halfword_program
 1390              		.syntax unified
 1391              		.thumb
 1392              		.thumb_func
 1394              	fmc_halfword_program:
 1395              	.LVL82:
 1396              	.LFB125:
 378:Drivers/GD32_F470_STD_Driver/Source/gd32f4xx_fmc.c ****     fmc_state_enum fmc_state = FMC_READY;
 1397              		.loc 1 378 1 is_stmt 1 view -0
 1398              		.cfi_startproc
 1399              		@ args = 0, pretend = 0, frame = 0
 1400              		@ frame_needed = 0, uses_anonymous_args = 0
 378:Drivers/GD32_F470_STD_Driver/Source/gd32f4xx_fmc.c ****     fmc_state_enum fmc_state = FMC_READY;
 1401              		.loc 1 378 1 is_stmt 0 view .LVU318
 1402 0000 70B5     		push	{r4, r5, r6, lr}
 1403              	.LCFI7:
 1404              		.cfi_def_cfa_offset 16
 1405              		.cfi_offset 4, -16
 1406              		.cfi_offset 5, -12
 1407              		.cfi_offset 6, -8
 1408              		.cfi_offset 14, -4
 1409 0002 0546     		mov	r5, r0
 1410 0004 0C46     		mov	r4, r1
 379:Drivers/GD32_F470_STD_Driver/Source/gd32f4xx_fmc.c ****     /* wait for the FMC ready */
 1411              		.loc 1 379 5 is_stmt 1 view .LVU319
 1412              	.LVL83:
 381:Drivers/GD32_F470_STD_Driver/Source/gd32f4xx_fmc.c **** 
 1413              		.loc 1 381 5 view .LVU320
 381:Drivers/GD32_F470_STD_Driver/Source/gd32f4xx_fmc.c **** 
 1414              		.loc 1 381 17 is_stmt 0 view .LVU321
 1415 0006 6FF03040 		mvn	r0, #-1342177280
 1416              	.LVL84:
 381:Drivers/GD32_F470_STD_Driver/Source/gd32f4xx_fmc.c **** 
 1417              		.loc 1 381 17 view .LVU322
 1418 000a FFF7FEFF 		bl	fmc_ready_wait
 1419              	.LVL85:
 383:Drivers/GD32_F470_STD_Driver/Source/gd32f4xx_fmc.c ****         /* set the PG bit to start program */
 1420              		.loc 1 383 5 is_stmt 1 view .LVU323
 383:Drivers/GD32_F470_STD_Driver/Source/gd32f4xx_fmc.c ****         /* set the PG bit to start program */
 1421              		.loc 1 383 7 is_stmt 0 view .LVU324
 1422 000e 00B1     		cbz	r0, .L139
 1423              	.L137:
 1424              	.LVL86:
 399:Drivers/GD32_F470_STD_Driver/Source/gd32f4xx_fmc.c **** }
 1425              		.loc 1 399 5 is_stmt 1 view .LVU325
 400:Drivers/GD32_F470_STD_Driver/Source/gd32f4xx_fmc.c **** 
ARM GAS  /tmp/ccSpQgdi.s 			page 46


 1426              		.loc 1 400 1 is_stmt 0 view .LVU326
 1427 0010 70BD     		pop	{r4, r5, r6, pc}
 1428              	.LVL87:
 1429              	.L139:
 385:Drivers/GD32_F470_STD_Driver/Source/gd32f4xx_fmc.c ****         FMC_CTL |= CTL_PSZ_HALF_WORD;
 1430              		.loc 1 385 9 is_stmt 1 view .LVU327
 385:Drivers/GD32_F470_STD_Driver/Source/gd32f4xx_fmc.c ****         FMC_CTL |= CTL_PSZ_HALF_WORD;
 1431              		.loc 1 385 17 is_stmt 0 view .LVU328
 1432 0012 0F4E     		ldr	r6, .L140
 1433 0014 D6F8103C 		ldr	r3, [r6, #3088]
 1434 0018 23F44073 		bic	r3, r3, #768
 1435 001c C6F8103C 		str	r3, [r6, #3088]
 386:Drivers/GD32_F470_STD_Driver/Source/gd32f4xx_fmc.c ****         FMC_CTL |= FMC_CTL_PG;
 1436              		.loc 1 386 9 is_stmt 1 view .LVU329
 386:Drivers/GD32_F470_STD_Driver/Source/gd32f4xx_fmc.c ****         FMC_CTL |= FMC_CTL_PG;
 1437              		.loc 1 386 17 is_stmt 0 view .LVU330
 1438 0020 D6F8103C 		ldr	r3, [r6, #3088]
 1439 0024 43F48073 		orr	r3, r3, #256
 1440 0028 C6F8103C 		str	r3, [r6, #3088]
 387:Drivers/GD32_F470_STD_Driver/Source/gd32f4xx_fmc.c **** 
 1441              		.loc 1 387 9 is_stmt 1 view .LVU331
 387:Drivers/GD32_F470_STD_Driver/Source/gd32f4xx_fmc.c **** 
 1442              		.loc 1 387 17 is_stmt 0 view .LVU332
 1443 002c D6F8103C 		ldr	r3, [r6, #3088]
 1444 0030 43F00103 		orr	r3, r3, #1
 1445 0034 C6F8103C 		str	r3, [r6, #3088]
 389:Drivers/GD32_F470_STD_Driver/Source/gd32f4xx_fmc.c **** 
 1446              		.loc 1 389 9 is_stmt 1 view .LVU333
 389:Drivers/GD32_F470_STD_Driver/Source/gd32f4xx_fmc.c **** 
 1447              		.loc 1 389 24 is_stmt 0 view .LVU334
 1448 0038 2C80     		strh	r4, [r5]	@ movhi
 392:Drivers/GD32_F470_STD_Driver/Source/gd32f4xx_fmc.c **** 
 1449              		.loc 1 392 9 is_stmt 1 view .LVU335
 392:Drivers/GD32_F470_STD_Driver/Source/gd32f4xx_fmc.c **** 
 1450              		.loc 1 392 21 is_stmt 0 view .LVU336
 1451 003a 6FF03040 		mvn	r0, #-1342177280
 1452 003e FFF7FEFF 		bl	fmc_ready_wait
 1453              	.LVL88:
 395:Drivers/GD32_F470_STD_Driver/Source/gd32f4xx_fmc.c ****     }
 1454              		.loc 1 395 9 is_stmt 1 view .LVU337
 395:Drivers/GD32_F470_STD_Driver/Source/gd32f4xx_fmc.c ****     }
 1455              		.loc 1 395 17 is_stmt 0 view .LVU338
 1456 0042 D6F8103C 		ldr	r3, [r6, #3088]
 1457 0046 23F00103 		bic	r3, r3, #1
 1458 004a C6F8103C 		str	r3, [r6, #3088]
 1459 004e DFE7     		b	.L137
 1460              	.L141:
 1461              		.align	2
 1462              	.L140:
 1463 0050 00300240 		.word	1073885184
 1464              		.cfi_endproc
 1465              	.LFE125:
 1467              		.section	.text.fmc_byte_program,"ax",%progbits
 1468              		.align	1
 1469              		.global	fmc_byte_program
 1470              		.syntax unified
 1471              		.thumb
ARM GAS  /tmp/ccSpQgdi.s 			page 47


 1472              		.thumb_func
 1474              	fmc_byte_program:
 1475              	.LVL89:
 1476              	.LFB126:
 418:Drivers/GD32_F470_STD_Driver/Source/gd32f4xx_fmc.c ****     fmc_state_enum fmc_state = FMC_READY;
 1477              		.loc 1 418 1 is_stmt 1 view -0
 1478              		.cfi_startproc
 1479              		@ args = 0, pretend = 0, frame = 0
 1480              		@ frame_needed = 0, uses_anonymous_args = 0
 418:Drivers/GD32_F470_STD_Driver/Source/gd32f4xx_fmc.c ****     fmc_state_enum fmc_state = FMC_READY;
 1481              		.loc 1 418 1 is_stmt 0 view .LVU340
 1482 0000 70B5     		push	{r4, r5, r6, lr}
 1483              	.LCFI8:
 1484              		.cfi_def_cfa_offset 16
 1485              		.cfi_offset 4, -16
 1486              		.cfi_offset 5, -12
 1487              		.cfi_offset 6, -8
 1488              		.cfi_offset 14, -4
 1489 0002 0546     		mov	r5, r0
 1490 0004 0C46     		mov	r4, r1
 419:Drivers/GD32_F470_STD_Driver/Source/gd32f4xx_fmc.c ****     /* wait for the FMC ready */
 1491              		.loc 1 419 5 is_stmt 1 view .LVU341
 1492              	.LVL90:
 421:Drivers/GD32_F470_STD_Driver/Source/gd32f4xx_fmc.c **** 
 1493              		.loc 1 421 5 view .LVU342
 421:Drivers/GD32_F470_STD_Driver/Source/gd32f4xx_fmc.c **** 
 1494              		.loc 1 421 17 is_stmt 0 view .LVU343
 1495 0006 6FF03040 		mvn	r0, #-1342177280
 1496              	.LVL91:
 421:Drivers/GD32_F470_STD_Driver/Source/gd32f4xx_fmc.c **** 
 1497              		.loc 1 421 17 view .LVU344
 1498 000a FFF7FEFF 		bl	fmc_ready_wait
 1499              	.LVL92:
 423:Drivers/GD32_F470_STD_Driver/Source/gd32f4xx_fmc.c ****         /* set the PG bit to start program */
 1500              		.loc 1 423 5 is_stmt 1 view .LVU345
 423:Drivers/GD32_F470_STD_Driver/Source/gd32f4xx_fmc.c ****         /* set the PG bit to start program */
 1501              		.loc 1 423 7 is_stmt 0 view .LVU346
 1502 000e 00B1     		cbz	r0, .L145
 1503              	.L143:
 1504              	.LVL93:
 439:Drivers/GD32_F470_STD_Driver/Source/gd32f4xx_fmc.c **** }
 1505              		.loc 1 439 5 is_stmt 1 view .LVU347
 440:Drivers/GD32_F470_STD_Driver/Source/gd32f4xx_fmc.c **** 
 1506              		.loc 1 440 1 is_stmt 0 view .LVU348
 1507 0010 70BD     		pop	{r4, r5, r6, pc}
 1508              	.LVL94:
 1509              	.L145:
 425:Drivers/GD32_F470_STD_Driver/Source/gd32f4xx_fmc.c ****         FMC_CTL |= CTL_PSZ_BYTE;
 1510              		.loc 1 425 9 is_stmt 1 view .LVU349
 425:Drivers/GD32_F470_STD_Driver/Source/gd32f4xx_fmc.c ****         FMC_CTL |= CTL_PSZ_BYTE;
 1511              		.loc 1 425 17 is_stmt 0 view .LVU350
 1512 0012 0E4E     		ldr	r6, .L146
 1513 0014 D6F8103C 		ldr	r3, [r6, #3088]
 1514 0018 23F44073 		bic	r3, r3, #768
 1515 001c C6F8103C 		str	r3, [r6, #3088]
 426:Drivers/GD32_F470_STD_Driver/Source/gd32f4xx_fmc.c ****         FMC_CTL |= FMC_CTL_PG;
 1516              		.loc 1 426 9 is_stmt 1 view .LVU351
ARM GAS  /tmp/ccSpQgdi.s 			page 48


 426:Drivers/GD32_F470_STD_Driver/Source/gd32f4xx_fmc.c ****         FMC_CTL |= FMC_CTL_PG;
 1517              		.loc 1 426 17 is_stmt 0 view .LVU352
 1518 0020 D6F8103C 		ldr	r3, [r6, #3088]
 1519 0024 C6F8103C 		str	r3, [r6, #3088]
 427:Drivers/GD32_F470_STD_Driver/Source/gd32f4xx_fmc.c **** 
 1520              		.loc 1 427 9 is_stmt 1 view .LVU353
 427:Drivers/GD32_F470_STD_Driver/Source/gd32f4xx_fmc.c **** 
 1521              		.loc 1 427 17 is_stmt 0 view .LVU354
 1522 0028 D6F8103C 		ldr	r3, [r6, #3088]
 1523 002c 43F00103 		orr	r3, r3, #1
 1524 0030 C6F8103C 		str	r3, [r6, #3088]
 429:Drivers/GD32_F470_STD_Driver/Source/gd32f4xx_fmc.c **** 
 1525              		.loc 1 429 9 is_stmt 1 view .LVU355
 429:Drivers/GD32_F470_STD_Driver/Source/gd32f4xx_fmc.c **** 
 1526              		.loc 1 429 23 is_stmt 0 view .LVU356
 1527 0034 2C70     		strb	r4, [r5]
 432:Drivers/GD32_F470_STD_Driver/Source/gd32f4xx_fmc.c **** 
 1528              		.loc 1 432 9 is_stmt 1 view .LVU357
 432:Drivers/GD32_F470_STD_Driver/Source/gd32f4xx_fmc.c **** 
 1529              		.loc 1 432 21 is_stmt 0 view .LVU358
 1530 0036 6FF03040 		mvn	r0, #-1342177280
 1531 003a FFF7FEFF 		bl	fmc_ready_wait
 1532              	.LVL95:
 435:Drivers/GD32_F470_STD_Driver/Source/gd32f4xx_fmc.c ****     }
 1533              		.loc 1 435 9 is_stmt 1 view .LVU359
 435:Drivers/GD32_F470_STD_Driver/Source/gd32f4xx_fmc.c ****     }
 1534              		.loc 1 435 17 is_stmt 0 view .LVU360
 1535 003e D6F8103C 		ldr	r3, [r6, #3088]
 1536 0042 23F00103 		bic	r3, r3, #1
 1537 0046 C6F8103C 		str	r3, [r6, #3088]
 1538 004a E1E7     		b	.L143
 1539              	.L147:
 1540              		.align	2
 1541              	.L146:
 1542 004c 00300240 		.word	1073885184
 1543              		.cfi_endproc
 1544              	.LFE126:
 1546              		.section	.text.ob_erase,"ax",%progbits
 1547              		.align	1
 1548              		.global	ob_erase
 1549              		.syntax unified
 1550              		.thumb
 1551              		.thumb_func
 1553              	ob_erase:
 1554              	.LFB130:
 488:Drivers/GD32_F470_STD_Driver/Source/gd32f4xx_fmc.c ****     uint32_t reg, reg1;
 1555              		.loc 1 488 1 is_stmt 1 view -0
 1556              		.cfi_startproc
 1557              		@ args = 0, pretend = 0, frame = 0
 1558              		@ frame_needed = 0, uses_anonymous_args = 0
 1559 0000 08B5     		push	{r3, lr}
 1560              	.LCFI9:
 1561              		.cfi_def_cfa_offset 8
 1562              		.cfi_offset 3, -8
 1563              		.cfi_offset 14, -4
 489:Drivers/GD32_F470_STD_Driver/Source/gd32f4xx_fmc.c ****     fmc_state_enum fmc_state = FMC_READY;
 1564              		.loc 1 489 5 view .LVU362
ARM GAS  /tmp/ccSpQgdi.s 			page 49


 490:Drivers/GD32_F470_STD_Driver/Source/gd32f4xx_fmc.c ****     /* wait for the FMC ready */
 1565              		.loc 1 490 5 view .LVU363
 1566              	.LVL96:
 492:Drivers/GD32_F470_STD_Driver/Source/gd32f4xx_fmc.c ****     reg = FMC_OBCTL0;
 1567              		.loc 1 492 5 view .LVU364
 492:Drivers/GD32_F470_STD_Driver/Source/gd32f4xx_fmc.c ****     reg = FMC_OBCTL0;
 1568              		.loc 1 492 17 is_stmt 0 view .LVU365
 1569 0002 6FF03040 		mvn	r0, #-1342177280
 1570 0006 FFF7FEFF 		bl	fmc_ready_wait
 1571              	.LVL97:
 493:Drivers/GD32_F470_STD_Driver/Source/gd32f4xx_fmc.c ****     reg1 = FMC_OBCTL1;
 1572              		.loc 1 493 5 is_stmt 1 view .LVU366
 493:Drivers/GD32_F470_STD_Driver/Source/gd32f4xx_fmc.c ****     reg1 = FMC_OBCTL1;
 1573              		.loc 1 493 9 is_stmt 0 view .LVU367
 1574 000a 0C4B     		ldr	r3, .L151
 1575 000c D3F8142C 		ldr	r2, [r3, #3092]
 1576              	.LVL98:
 494:Drivers/GD32_F470_STD_Driver/Source/gd32f4xx_fmc.c **** 
 1577              		.loc 1 494 5 is_stmt 1 view .LVU368
 494:Drivers/GD32_F470_STD_Driver/Source/gd32f4xx_fmc.c **** 
 1578              		.loc 1 494 10 is_stmt 0 view .LVU369
 1579 0010 D3F8183C 		ldr	r3, [r3, #3096]
 1580              	.LVL99:
 496:Drivers/GD32_F470_STD_Driver/Source/gd32f4xx_fmc.c **** 
 1581              		.loc 1 496 5 is_stmt 1 view .LVU370
 496:Drivers/GD32_F470_STD_Driver/Source/gd32f4xx_fmc.c **** 
 1582              		.loc 1 496 7 is_stmt 0 view .LVU371
 1583 0014 80B9     		cbnz	r0, .L148
 499:Drivers/GD32_F470_STD_Driver/Source/gd32f4xx_fmc.c ****         /* reset the BOR level */
 1584              		.loc 1 499 9 is_stmt 1 view .LVU372
 1585              	.LVL100:
 501:Drivers/GD32_F470_STD_Driver/Source/gd32f4xx_fmc.c ****         /* reset option byte boot bank value */
 1586              		.loc 1 501 9 view .LVU373
 503:Drivers/GD32_F470_STD_Driver/Source/gd32f4xx_fmc.c ****         /* reset option byte dbs value */
 1587              		.loc 1 503 9 view .LVU374
 505:Drivers/GD32_F470_STD_Driver/Source/gd32f4xx_fmc.c **** 
 1588              		.loc 1 505 9 view .LVU375
 508:Drivers/GD32_F470_STD_Driver/Source/gd32f4xx_fmc.c ****         reg &= (~FMC_OBCTL0_DRP);
 1589              		.loc 1 508 9 view .LVU376
 509:Drivers/GD32_F470_STD_Driver/Source/gd32f4xx_fmc.c ****         FMC_OBCTL0 = reg;
 1590              		.loc 1 509 9 view .LVU377
 1591 0016 22F04042 		bic	r2, r2, #-1073741824
 1592              	.LVL101:
 509:Drivers/GD32_F470_STD_Driver/Source/gd32f4xx_fmc.c ****         FMC_OBCTL0 = reg;
 1593              		.loc 1 509 9 is_stmt 0 view .LVU378
 1594 001a 22F01002 		bic	r2, r2, #16
 509:Drivers/GD32_F470_STD_Driver/Source/gd32f4xx_fmc.c ****         FMC_OBCTL0 = reg;
 1595              		.loc 1 509 13 view .LVU379
 1596 001e 0849     		ldr	r1, .L151+4
 1597 0020 1143     		orrs	r1, r1, r2
 1598              	.LVL102:
 510:Drivers/GD32_F470_STD_Driver/Source/gd32f4xx_fmc.c **** 
 1599              		.loc 1 510 9 is_stmt 1 view .LVU380
 510:Drivers/GD32_F470_STD_Driver/Source/gd32f4xx_fmc.c **** 
 1600              		.loc 1 510 20 is_stmt 0 view .LVU381
 1601 0022 064A     		ldr	r2, .L151
 1602 0024 C2F8141C 		str	r1, [r2, #3092]
ARM GAS  /tmp/ccSpQgdi.s 			page 50


 512:Drivers/GD32_F470_STD_Driver/Source/gd32f4xx_fmc.c ****         FMC_OBCTL1 = reg1;
 1603              		.loc 1 512 9 is_stmt 1 view .LVU382
 512:Drivers/GD32_F470_STD_Driver/Source/gd32f4xx_fmc.c ****         FMC_OBCTL1 = reg1;
 1604              		.loc 1 512 14 is_stmt 0 view .LVU383
 1605 0028 43F07F63 		orr	r3, r3, #267386880
 1606              	.LVL103:
 512:Drivers/GD32_F470_STD_Driver/Source/gd32f4xx_fmc.c ****         FMC_OBCTL1 = reg1;
 1607              		.loc 1 512 14 view .LVU384
 1608 002c 43F47023 		orr	r3, r3, #983040
 1609              	.LVL104:
 513:Drivers/GD32_F470_STD_Driver/Source/gd32f4xx_fmc.c **** 
 1610              		.loc 1 513 9 is_stmt 1 view .LVU385
 513:Drivers/GD32_F470_STD_Driver/Source/gd32f4xx_fmc.c **** 
 1611              		.loc 1 513 20 is_stmt 0 view .LVU386
 1612 0030 C2F8183C 		str	r3, [r2, #3096]
 515:Drivers/GD32_F470_STD_Driver/Source/gd32f4xx_fmc.c ****     }
 1613              		.loc 1 515 9 is_stmt 1 view .LVU387
 515:Drivers/GD32_F470_STD_Driver/Source/gd32f4xx_fmc.c ****     }
 1614              		.loc 1 515 20 is_stmt 0 view .LVU388
 1615 0034 C2F8141C 		str	r1, [r2, #3092]
 1616              	.LVL105:
 1617              	.L148:
 517:Drivers/GD32_F470_STD_Driver/Source/gd32f4xx_fmc.c **** 
 1618              		.loc 1 517 1 view .LVU389
 1619 0038 08BD     		pop	{r3, pc}
 1620              	.LVL106:
 1621              	.L152:
 517:Drivers/GD32_F470_STD_Driver/Source/gd32f4xx_fmc.c **** 
 1622              		.loc 1 517 1 view .LVU390
 1623 003a 00BF     		.align	2
 1624              	.L151:
 1625 003c 00300240 		.word	1073885184
 1626 0040 EC00FF0F 		.word	268370156
 1627              		.cfi_endproc
 1628              	.LFE130:
 1630              		.section	.text.ob_write_protection_enable,"ax",%progbits
 1631              		.align	1
 1632              		.global	ob_write_protection_enable
 1633              		.syntax unified
 1634              		.thumb
 1635              		.thumb_func
 1637              	ob_write_protection_enable:
 1638              	.LVL107:
 1639              	.LFB131:
 530:Drivers/GD32_F470_STD_Driver/Source/gd32f4xx_fmc.c ****     uint32_t reg0 = FMC_OBCTL0;
 1640              		.loc 1 530 1 is_stmt 1 view -0
 1641              		.cfi_startproc
 1642              		@ args = 0, pretend = 0, frame = 0
 1643              		@ frame_needed = 0, uses_anonymous_args = 0
 530:Drivers/GD32_F470_STD_Driver/Source/gd32f4xx_fmc.c ****     uint32_t reg0 = FMC_OBCTL0;
 1644              		.loc 1 530 1 is_stmt 0 view .LVU392
 1645 0000 70B5     		push	{r4, r5, r6, lr}
 1646              	.LCFI10:
 1647              		.cfi_def_cfa_offset 16
 1648              		.cfi_offset 4, -16
 1649              		.cfi_offset 5, -12
 1650              		.cfi_offset 6, -8
ARM GAS  /tmp/ccSpQgdi.s 			page 51


 1651              		.cfi_offset 14, -4
 531:Drivers/GD32_F470_STD_Driver/Source/gd32f4xx_fmc.c ****     uint32_t reg1 = FMC_OBCTL1;
 1652              		.loc 1 531 5 is_stmt 1 view .LVU393
 531:Drivers/GD32_F470_STD_Driver/Source/gd32f4xx_fmc.c ****     uint32_t reg1 = FMC_OBCTL1;
 1653              		.loc 1 531 14 is_stmt 0 view .LVU394
 1654 0002 104B     		ldr	r3, .L158
 1655 0004 D3F8146C 		ldr	r6, [r3, #3092]
 1656              	.LVL108:
 532:Drivers/GD32_F470_STD_Driver/Source/gd32f4xx_fmc.c ****     fmc_state_enum fmc_state = FMC_READY;
 1657              		.loc 1 532 5 is_stmt 1 view .LVU395
 532:Drivers/GD32_F470_STD_Driver/Source/gd32f4xx_fmc.c ****     fmc_state_enum fmc_state = FMC_READY;
 1658              		.loc 1 532 14 is_stmt 0 view .LVU396
 1659 0008 D3F8185C 		ldr	r5, [r3, #3096]
 1660              	.LVL109:
 533:Drivers/GD32_F470_STD_Driver/Source/gd32f4xx_fmc.c ****     if(RESET != (FMC_OBCTL0 & FMC_OBCTL0_DRP)) {
 1661              		.loc 1 533 5 is_stmt 1 view .LVU397
 534:Drivers/GD32_F470_STD_Driver/Source/gd32f4xx_fmc.c ****         return ERROR;
 1662              		.loc 1 534 5 view .LVU398
 534:Drivers/GD32_F470_STD_Driver/Source/gd32f4xx_fmc.c ****         return ERROR;
 1663              		.loc 1 534 18 is_stmt 0 view .LVU399
 1664 000c D3F8143C 		ldr	r3, [r3, #3092]
 534:Drivers/GD32_F470_STD_Driver/Source/gd32f4xx_fmc.c ****         return ERROR;
 1665              		.loc 1 534 7 view .LVU400
 1666 0010 002B     		cmp	r3, #0
 1667 0012 12DB     		blt	.L155
 1668 0014 0446     		mov	r4, r0
 538:Drivers/GD32_F470_STD_Driver/Source/gd32f4xx_fmc.c **** 
 1669              		.loc 1 538 5 is_stmt 1 view .LVU401
 538:Drivers/GD32_F470_STD_Driver/Source/gd32f4xx_fmc.c **** 
 1670              		.loc 1 538 17 is_stmt 0 view .LVU402
 1671 0016 6FF03040 		mvn	r0, #-1342177280
 1672              	.LVL110:
 538:Drivers/GD32_F470_STD_Driver/Source/gd32f4xx_fmc.c **** 
 1673              		.loc 1 538 17 view .LVU403
 1674 001a FFF7FEFF 		bl	fmc_ready_wait
 1675              	.LVL111:
 540:Drivers/GD32_F470_STD_Driver/Source/gd32f4xx_fmc.c ****         reg0 &= (~((uint32_t)ob_wp << 16U));
 1676              		.loc 1 540 5 is_stmt 1 view .LVU404
 540:Drivers/GD32_F470_STD_Driver/Source/gd32f4xx_fmc.c ****         reg0 &= (~((uint32_t)ob_wp << 16U));
 1677              		.loc 1 540 7 is_stmt 0 view .LVU405
 1678 001e 70B9     		cbnz	r0, .L156
 541:Drivers/GD32_F470_STD_Driver/Source/gd32f4xx_fmc.c ****         reg1 &= (~(ob_wp & 0xFFFF0000U));
 1679              		.loc 1 541 9 is_stmt 1 view .LVU406
 541:Drivers/GD32_F470_STD_Driver/Source/gd32f4xx_fmc.c ****         reg1 &= (~(ob_wp & 0xFFFF0000U));
 1680              		.loc 1 541 14 is_stmt 0 view .LVU407
 1681 0020 26EA0446 		bic	r6, r6, r4, lsl #16
 1682              	.LVL112:
 542:Drivers/GD32_F470_STD_Driver/Source/gd32f4xx_fmc.c ****         FMC_OBCTL0 = reg0;
 1683              		.loc 1 542 9 is_stmt 1 view .LVU408
 542:Drivers/GD32_F470_STD_Driver/Source/gd32f4xx_fmc.c ****         FMC_OBCTL0 = reg0;
 1684              		.loc 1 542 26 is_stmt 0 view .LVU409
 1685 0024 200C     		lsrs	r0, r4, #16
 1686              	.LVL113:
 542:Drivers/GD32_F470_STD_Driver/Source/gd32f4xx_fmc.c ****         FMC_OBCTL0 = reg0;
 1687              		.loc 1 542 26 view .LVU410
 1688 0026 0004     		lsls	r0, r0, #16
 542:Drivers/GD32_F470_STD_Driver/Source/gd32f4xx_fmc.c ****         FMC_OBCTL0 = reg0;
ARM GAS  /tmp/ccSpQgdi.s 			page 52


 1689              		.loc 1 542 14 view .LVU411
 1690 0028 25EA0000 		bic	r0, r5, r0
 1691              	.LVL114:
 543:Drivers/GD32_F470_STD_Driver/Source/gd32f4xx_fmc.c ****         FMC_OBCTL1 = reg1;
 1692              		.loc 1 543 9 is_stmt 1 view .LVU412
 543:Drivers/GD32_F470_STD_Driver/Source/gd32f4xx_fmc.c ****         FMC_OBCTL1 = reg1;
 1693              		.loc 1 543 20 is_stmt 0 view .LVU413
 1694 002c 054B     		ldr	r3, .L158
 1695 002e C3F8146C 		str	r6, [r3, #3092]
 544:Drivers/GD32_F470_STD_Driver/Source/gd32f4xx_fmc.c **** 
 1696              		.loc 1 544 9 is_stmt 1 view .LVU414
 544:Drivers/GD32_F470_STD_Driver/Source/gd32f4xx_fmc.c **** 
 1697              		.loc 1 544 20 is_stmt 0 view .LVU415
 1698 0032 C3F8180C 		str	r0, [r3, #3096]
 546:Drivers/GD32_F470_STD_Driver/Source/gd32f4xx_fmc.c ****     } else {
 1699              		.loc 1 546 9 is_stmt 1 view .LVU416
 546:Drivers/GD32_F470_STD_Driver/Source/gd32f4xx_fmc.c ****     } else {
 1700              		.loc 1 546 16 is_stmt 0 view .LVU417
 1701 0036 0120     		movs	r0, #1
 1702              	.LVL115:
 546:Drivers/GD32_F470_STD_Driver/Source/gd32f4xx_fmc.c ****     } else {
 1703              		.loc 1 546 16 view .LVU418
 1704 0038 00E0     		b	.L154
 1705              	.LVL116:
 1706              	.L155:
 535:Drivers/GD32_F470_STD_Driver/Source/gd32f4xx_fmc.c ****     }
 1707              		.loc 1 535 16 view .LVU419
 1708 003a 0020     		movs	r0, #0
 1709              	.LVL117:
 1710              	.L154:
 550:Drivers/GD32_F470_STD_Driver/Source/gd32f4xx_fmc.c **** 
 1711              		.loc 1 550 1 view .LVU420
 1712 003c 70BD     		pop	{r4, r5, r6, pc}
 1713              	.LVL118:
 1714              	.L156:
 548:Drivers/GD32_F470_STD_Driver/Source/gd32f4xx_fmc.c ****     }
 1715              		.loc 1 548 16 view .LVU421
 1716 003e 0020     		movs	r0, #0
 1717              	.LVL119:
 548:Drivers/GD32_F470_STD_Driver/Source/gd32f4xx_fmc.c ****     }
 1718              		.loc 1 548 16 view .LVU422
 1719 0040 FCE7     		b	.L154
 1720              	.L159:
 1721 0042 00BF     		.align	2
 1722              	.L158:
 1723 0044 00300240 		.word	1073885184
 1724              		.cfi_endproc
 1725              	.LFE131:
 1727              		.section	.text.ob_write_protection_disable,"ax",%progbits
 1728              		.align	1
 1729              		.global	ob_write_protection_disable
 1730              		.syntax unified
 1731              		.thumb
 1732              		.thumb_func
 1734              	ob_write_protection_disable:
 1735              	.LVL120:
 1736              	.LFB132:
ARM GAS  /tmp/ccSpQgdi.s 			page 53


 563:Drivers/GD32_F470_STD_Driver/Source/gd32f4xx_fmc.c ****     uint32_t reg0 = FMC_OBCTL0;
 1737              		.loc 1 563 1 is_stmt 1 view -0
 1738              		.cfi_startproc
 1739              		@ args = 0, pretend = 0, frame = 0
 1740              		@ frame_needed = 0, uses_anonymous_args = 0
 563:Drivers/GD32_F470_STD_Driver/Source/gd32f4xx_fmc.c ****     uint32_t reg0 = FMC_OBCTL0;
 1741              		.loc 1 563 1 is_stmt 0 view .LVU424
 1742 0000 70B5     		push	{r4, r5, r6, lr}
 1743              	.LCFI11:
 1744              		.cfi_def_cfa_offset 16
 1745              		.cfi_offset 4, -16
 1746              		.cfi_offset 5, -12
 1747              		.cfi_offset 6, -8
 1748              		.cfi_offset 14, -4
 564:Drivers/GD32_F470_STD_Driver/Source/gd32f4xx_fmc.c ****     uint32_t reg1 = FMC_OBCTL1;
 1749              		.loc 1 564 5 is_stmt 1 view .LVU425
 564:Drivers/GD32_F470_STD_Driver/Source/gd32f4xx_fmc.c ****     uint32_t reg1 = FMC_OBCTL1;
 1750              		.loc 1 564 14 is_stmt 0 view .LVU426
 1751 0002 0F4B     		ldr	r3, .L165
 1752 0004 D3F8145C 		ldr	r5, [r3, #3092]
 1753              	.LVL121:
 565:Drivers/GD32_F470_STD_Driver/Source/gd32f4xx_fmc.c ****     fmc_state_enum fmc_state = FMC_READY;
 1754              		.loc 1 565 5 is_stmt 1 view .LVU427
 565:Drivers/GD32_F470_STD_Driver/Source/gd32f4xx_fmc.c ****     fmc_state_enum fmc_state = FMC_READY;
 1755              		.loc 1 565 14 is_stmt 0 view .LVU428
 1756 0008 D3F8186C 		ldr	r6, [r3, #3096]
 1757              	.LVL122:
 566:Drivers/GD32_F470_STD_Driver/Source/gd32f4xx_fmc.c ****     if(RESET != (FMC_OBCTL0 & FMC_OBCTL0_DRP)) {
 1758              		.loc 1 566 5 is_stmt 1 view .LVU429
 567:Drivers/GD32_F470_STD_Driver/Source/gd32f4xx_fmc.c ****         return ERROR;
 1759              		.loc 1 567 5 view .LVU430
 567:Drivers/GD32_F470_STD_Driver/Source/gd32f4xx_fmc.c ****         return ERROR;
 1760              		.loc 1 567 18 is_stmt 0 view .LVU431
 1761 000c D3F8143C 		ldr	r3, [r3, #3092]
 567:Drivers/GD32_F470_STD_Driver/Source/gd32f4xx_fmc.c ****         return ERROR;
 1762              		.loc 1 567 7 view .LVU432
 1763 0010 002B     		cmp	r3, #0
 1764 0012 11DB     		blt	.L162
 1765 0014 0446     		mov	r4, r0
 571:Drivers/GD32_F470_STD_Driver/Source/gd32f4xx_fmc.c **** 
 1766              		.loc 1 571 5 is_stmt 1 view .LVU433
 571:Drivers/GD32_F470_STD_Driver/Source/gd32f4xx_fmc.c **** 
 1767              		.loc 1 571 17 is_stmt 0 view .LVU434
 1768 0016 6FF03040 		mvn	r0, #-1342177280
 1769              	.LVL123:
 571:Drivers/GD32_F470_STD_Driver/Source/gd32f4xx_fmc.c **** 
 1770              		.loc 1 571 17 view .LVU435
 1771 001a FFF7FEFF 		bl	fmc_ready_wait
 1772              	.LVL124:
 573:Drivers/GD32_F470_STD_Driver/Source/gd32f4xx_fmc.c ****         reg0 |= ((uint32_t)ob_wp << 16U);
 1773              		.loc 1 573 5 is_stmt 1 view .LVU436
 573:Drivers/GD32_F470_STD_Driver/Source/gd32f4xx_fmc.c ****         reg0 |= ((uint32_t)ob_wp << 16U);
 1774              		.loc 1 573 7 is_stmt 0 view .LVU437
 1775 001e 68B9     		cbnz	r0, .L163
 574:Drivers/GD32_F470_STD_Driver/Source/gd32f4xx_fmc.c ****         reg1 |= (ob_wp & 0xFFFF0000U);
 1776              		.loc 1 574 9 is_stmt 1 view .LVU438
 574:Drivers/GD32_F470_STD_Driver/Source/gd32f4xx_fmc.c ****         reg1 |= (ob_wp & 0xFFFF0000U);
ARM GAS  /tmp/ccSpQgdi.s 			page 54


 1777              		.loc 1 574 14 is_stmt 0 view .LVU439
 1778 0020 45EA0445 		orr	r5, r5, r4, lsl #16
 1779              	.LVL125:
 575:Drivers/GD32_F470_STD_Driver/Source/gd32f4xx_fmc.c ****         FMC_OBCTL0 = reg0;
 1780              		.loc 1 575 9 is_stmt 1 view .LVU440
 575:Drivers/GD32_F470_STD_Driver/Source/gd32f4xx_fmc.c ****         FMC_OBCTL0 = reg0;
 1781              		.loc 1 575 24 is_stmt 0 view .LVU441
 1782 0024 200C     		lsrs	r0, r4, #16
 1783              	.LVL126:
 575:Drivers/GD32_F470_STD_Driver/Source/gd32f4xx_fmc.c ****         FMC_OBCTL0 = reg0;
 1784              		.loc 1 575 24 view .LVU442
 1785 0026 0004     		lsls	r0, r0, #16
 575:Drivers/GD32_F470_STD_Driver/Source/gd32f4xx_fmc.c ****         FMC_OBCTL0 = reg0;
 1786              		.loc 1 575 14 view .LVU443
 1787 0028 3043     		orrs	r0, r0, r6
 1788              	.LVL127:
 576:Drivers/GD32_F470_STD_Driver/Source/gd32f4xx_fmc.c ****         FMC_OBCTL1 = reg1;
 1789              		.loc 1 576 9 is_stmt 1 view .LVU444
 576:Drivers/GD32_F470_STD_Driver/Source/gd32f4xx_fmc.c ****         FMC_OBCTL1 = reg1;
 1790              		.loc 1 576 20 is_stmt 0 view .LVU445
 1791 002a 054B     		ldr	r3, .L165
 1792 002c C3F8145C 		str	r5, [r3, #3092]
 577:Drivers/GD32_F470_STD_Driver/Source/gd32f4xx_fmc.c **** 
 1793              		.loc 1 577 9 is_stmt 1 view .LVU446
 577:Drivers/GD32_F470_STD_Driver/Source/gd32f4xx_fmc.c **** 
 1794              		.loc 1 577 20 is_stmt 0 view .LVU447
 1795 0030 C3F8180C 		str	r0, [r3, #3096]
 579:Drivers/GD32_F470_STD_Driver/Source/gd32f4xx_fmc.c ****     } else {
 1796              		.loc 1 579 9 is_stmt 1 view .LVU448
 579:Drivers/GD32_F470_STD_Driver/Source/gd32f4xx_fmc.c ****     } else {
 1797              		.loc 1 579 16 is_stmt 0 view .LVU449
 1798 0034 0120     		movs	r0, #1
 1799              	.LVL128:
 579:Drivers/GD32_F470_STD_Driver/Source/gd32f4xx_fmc.c ****     } else {
 1800              		.loc 1 579 16 view .LVU450
 1801 0036 00E0     		b	.L161
 1802              	.LVL129:
 1803              	.L162:
 568:Drivers/GD32_F470_STD_Driver/Source/gd32f4xx_fmc.c ****     }
 1804              		.loc 1 568 16 view .LVU451
 1805 0038 0020     		movs	r0, #0
 1806              	.LVL130:
 1807              	.L161:
 583:Drivers/GD32_F470_STD_Driver/Source/gd32f4xx_fmc.c **** 
 1808              		.loc 1 583 1 view .LVU452
 1809 003a 70BD     		pop	{r4, r5, r6, pc}
 1810              	.LVL131:
 1811              	.L163:
 581:Drivers/GD32_F470_STD_Driver/Source/gd32f4xx_fmc.c ****     }
 1812              		.loc 1 581 16 view .LVU453
 1813 003c 0020     		movs	r0, #0
 1814              	.LVL132:
 581:Drivers/GD32_F470_STD_Driver/Source/gd32f4xx_fmc.c ****     }
 1815              		.loc 1 581 16 view .LVU454
 1816 003e FCE7     		b	.L161
 1817              	.L166:
 1818              		.align	2
ARM GAS  /tmp/ccSpQgdi.s 			page 55


 1819              	.L165:
 1820 0040 00300240 		.word	1073885184
 1821              		.cfi_endproc
 1822              	.LFE132:
 1824              		.section	.text.ob_drp_enable,"ax",%progbits
 1825              		.align	1
 1826              		.global	ob_drp_enable
 1827              		.syntax unified
 1828              		.thumb
 1829              		.thumb_func
 1831              	ob_drp_enable:
 1832              	.LVL133:
 1833              	.LFB133:
 596:Drivers/GD32_F470_STD_Driver/Source/gd32f4xx_fmc.c ****     uint32_t reg0 = FMC_OBCTL0;
 1834              		.loc 1 596 1 is_stmt 1 view -0
 1835              		.cfi_startproc
 1836              		@ args = 0, pretend = 0, frame = 0
 1837              		@ frame_needed = 0, uses_anonymous_args = 0
 596:Drivers/GD32_F470_STD_Driver/Source/gd32f4xx_fmc.c ****     uint32_t reg0 = FMC_OBCTL0;
 1838              		.loc 1 596 1 is_stmt 0 view .LVU456
 1839 0000 F8B5     		push	{r3, r4, r5, r6, r7, lr}
 1840              	.LCFI12:
 1841              		.cfi_def_cfa_offset 24
 1842              		.cfi_offset 3, -24
 1843              		.cfi_offset 4, -20
 1844              		.cfi_offset 5, -16
 1845              		.cfi_offset 6, -12
 1846              		.cfi_offset 7, -8
 1847              		.cfi_offset 14, -4
 1848 0002 0446     		mov	r4, r0
 597:Drivers/GD32_F470_STD_Driver/Source/gd32f4xx_fmc.c ****     uint32_t reg1 = FMC_OBCTL1;
 1849              		.loc 1 597 5 is_stmt 1 view .LVU457
 597:Drivers/GD32_F470_STD_Driver/Source/gd32f4xx_fmc.c ****     uint32_t reg1 = FMC_OBCTL1;
 1850              		.loc 1 597 14 is_stmt 0 view .LVU458
 1851 0004 134B     		ldr	r3, .L171
 1852 0006 D3F8145C 		ldr	r5, [r3, #3092]
 1853              	.LVL134:
 598:Drivers/GD32_F470_STD_Driver/Source/gd32f4xx_fmc.c ****     fmc_state_enum fmc_state = FMC_READY;
 1854              		.loc 1 598 5 is_stmt 1 view .LVU459
 598:Drivers/GD32_F470_STD_Driver/Source/gd32f4xx_fmc.c ****     fmc_state_enum fmc_state = FMC_READY;
 1855              		.loc 1 598 14 is_stmt 0 view .LVU460
 1856 000a D3F8186C 		ldr	r6, [r3, #3096]
 1857              	.LVL135:
 599:Drivers/GD32_F470_STD_Driver/Source/gd32f4xx_fmc.c ****     uint32_t drp_state = FMC_OBCTL0 & FMC_OBCTL0_DRP;
 1858              		.loc 1 599 5 is_stmt 1 view .LVU461
 600:Drivers/GD32_F470_STD_Driver/Source/gd32f4xx_fmc.c ****     uint32_t wp0_state = FMC_OBCTL0 & FMC_OBCTL0_WP0;
 1859              		.loc 1 600 5 view .LVU462
 600:Drivers/GD32_F470_STD_Driver/Source/gd32f4xx_fmc.c ****     uint32_t wp0_state = FMC_OBCTL0 & FMC_OBCTL0_WP0;
 1860              		.loc 1 600 26 is_stmt 0 view .LVU463
 1861 000e D3F8147C 		ldr	r7, [r3, #3092]
 1862              	.LVL136:
 601:Drivers/GD32_F470_STD_Driver/Source/gd32f4xx_fmc.c ****     uint32_t wp1_state = FMC_OBCTL1 & FMC_OBCTL1_WP1;
 1863              		.loc 1 601 5 is_stmt 1 view .LVU464
 601:Drivers/GD32_F470_STD_Driver/Source/gd32f4xx_fmc.c ****     uint32_t wp1_state = FMC_OBCTL1 & FMC_OBCTL1_WP1;
 1864              		.loc 1 601 26 is_stmt 0 view .LVU465
 1865 0012 D3F8142C 		ldr	r2, [r3, #3092]
 602:Drivers/GD32_F470_STD_Driver/Source/gd32f4xx_fmc.c **** 
ARM GAS  /tmp/ccSpQgdi.s 			page 56


 1866              		.loc 1 602 5 is_stmt 1 view .LVU466
 602:Drivers/GD32_F470_STD_Driver/Source/gd32f4xx_fmc.c **** 
 1867              		.loc 1 602 26 is_stmt 0 view .LVU467
 1868 0016 D3F8183C 		ldr	r3, [r3, #3096]
 605:Drivers/GD32_F470_STD_Driver/Source/gd32f4xx_fmc.c **** 
 1869              		.loc 1 605 5 is_stmt 1 view .LVU468
 605:Drivers/GD32_F470_STD_Driver/Source/gd32f4xx_fmc.c **** 
 1870              		.loc 1 605 17 is_stmt 0 view .LVU469
 1871 001a 6FF03040 		mvn	r0, #-1342177280
 1872              	.LVL137:
 605:Drivers/GD32_F470_STD_Driver/Source/gd32f4xx_fmc.c **** 
 1873              		.loc 1 605 17 view .LVU470
 1874 001e FFF7FEFF 		bl	fmc_ready_wait
 1875              	.LVL138:
 607:Drivers/GD32_F470_STD_Driver/Source/gd32f4xx_fmc.c ****         if(RESET == drp_state) {
 1876              		.loc 1 607 5 is_stmt 1 view .LVU471
 607:Drivers/GD32_F470_STD_Driver/Source/gd32f4xx_fmc.c ****         if(RESET == drp_state) {
 1877              		.loc 1 607 7 is_stmt 0 view .LVU472
 1878 0022 A8B9     		cbnz	r0, .L167
 608:Drivers/GD32_F470_STD_Driver/Source/gd32f4xx_fmc.c ****             reg0 &= ~FMC_OBCTL0_WP0;
 1879              		.loc 1 608 9 is_stmt 1 view .LVU473
 608:Drivers/GD32_F470_STD_Driver/Source/gd32f4xx_fmc.c ****             reg0 &= ~FMC_OBCTL0_WP0;
 1880              		.loc 1 608 11 is_stmt 0 view .LVU474
 1881 0024 002F     		cmp	r7, #0
 1882 0026 07DB     		blt	.L169
 609:Drivers/GD32_F470_STD_Driver/Source/gd32f4xx_fmc.c ****             reg1 &= ~FMC_OBCTL1_WP1;
 1883              		.loc 1 609 13 is_stmt 1 view .LVU475
 609:Drivers/GD32_F470_STD_Driver/Source/gd32f4xx_fmc.c ****             reg1 &= ~FMC_OBCTL1_WP1;
 1884              		.loc 1 609 18 is_stmt 0 view .LVU476
 1885 0028 25F07F65 		bic	r5, r5, #267386880
 1886              	.LVL139:
 609:Drivers/GD32_F470_STD_Driver/Source/gd32f4xx_fmc.c ****             reg1 &= ~FMC_OBCTL1_WP1;
 1887              		.loc 1 609 18 view .LVU477
 1888 002c 25F47025 		bic	r5, r5, #983040
 1889              	.LVL140:
 610:Drivers/GD32_F470_STD_Driver/Source/gd32f4xx_fmc.c ****         }
 1890              		.loc 1 610 13 is_stmt 1 view .LVU478
 610:Drivers/GD32_F470_STD_Driver/Source/gd32f4xx_fmc.c ****         }
 1891              		.loc 1 610 18 is_stmt 0 view .LVU479
 1892 0030 26F07F66 		bic	r6, r6, #267386880
 1893              	.LVL141:
 610:Drivers/GD32_F470_STD_Driver/Source/gd32f4xx_fmc.c ****         }
 1894              		.loc 1 610 18 view .LVU480
 1895 0034 26F47026 		bic	r6, r6, #983040
 1896              	.LVL142:
 1897              	.L169:
 612:Drivers/GD32_F470_STD_Driver/Source/gd32f4xx_fmc.c ****         reg0 |= FMC_OBCTL0_DRP;
 1898              		.loc 1 612 9 is_stmt 1 view .LVU481
 612:Drivers/GD32_F470_STD_Driver/Source/gd32f4xx_fmc.c ****         reg0 |= FMC_OBCTL0_DRP;
 1899              		.loc 1 612 14 is_stmt 0 view .LVU482
 1900 0038 45EA0445 		orr	r5, r5, r4, lsl #16
 1901              	.LVL143:
 613:Drivers/GD32_F470_STD_Driver/Source/gd32f4xx_fmc.c ****         reg1 |= ((uint32_t)ob_drp & 0xFFFF0000U);
 1902              		.loc 1 613 9 is_stmt 1 view .LVU483
 613:Drivers/GD32_F470_STD_Driver/Source/gd32f4xx_fmc.c ****         reg1 |= ((uint32_t)ob_drp & 0xFFFF0000U);
 1903              		.loc 1 613 14 is_stmt 0 view .LVU484
 1904 003c 45F00045 		orr	r5, r5, #-2147483648
ARM GAS  /tmp/ccSpQgdi.s 			page 57


 1905              	.LVL144:
 614:Drivers/GD32_F470_STD_Driver/Source/gd32f4xx_fmc.c **** 
 1906              		.loc 1 614 9 is_stmt 1 view .LVU485
 614:Drivers/GD32_F470_STD_Driver/Source/gd32f4xx_fmc.c **** 
 1907              		.loc 1 614 35 is_stmt 0 view .LVU486
 1908 0040 240C     		lsrs	r4, r4, #16
 1909              	.LVL145:
 614:Drivers/GD32_F470_STD_Driver/Source/gd32f4xx_fmc.c **** 
 1910              		.loc 1 614 35 view .LVU487
 1911 0042 2404     		lsls	r4, r4, #16
 614:Drivers/GD32_F470_STD_Driver/Source/gd32f4xx_fmc.c **** 
 1912              		.loc 1 614 14 view .LVU488
 1913 0044 3443     		orrs	r4, r4, r6
 1914              	.LVL146:
 616:Drivers/GD32_F470_STD_Driver/Source/gd32f4xx_fmc.c ****         FMC_OBCTL1 = reg1;
 1915              		.loc 1 616 9 is_stmt 1 view .LVU489
 616:Drivers/GD32_F470_STD_Driver/Source/gd32f4xx_fmc.c ****         FMC_OBCTL1 = reg1;
 1916              		.loc 1 616 20 is_stmt 0 view .LVU490
 1917 0046 034B     		ldr	r3, .L171
 1918 0048 C3F8145C 		str	r5, [r3, #3092]
 617:Drivers/GD32_F470_STD_Driver/Source/gd32f4xx_fmc.c ****     }
 1919              		.loc 1 617 9 is_stmt 1 view .LVU491
 617:Drivers/GD32_F470_STD_Driver/Source/gd32f4xx_fmc.c ****     }
 1920              		.loc 1 617 20 is_stmt 0 view .LVU492
 1921 004c C3F8184C 		str	r4, [r3, #3096]
 1922              	.LVL147:
 1923              	.L167:
 619:Drivers/GD32_F470_STD_Driver/Source/gd32f4xx_fmc.c **** 
 1924              		.loc 1 619 1 view .LVU493
 1925 0050 F8BD     		pop	{r3, r4, r5, r6, r7, pc}
 1926              	.LVL148:
 1927              	.L172:
 619:Drivers/GD32_F470_STD_Driver/Source/gd32f4xx_fmc.c **** 
 1928              		.loc 1 619 1 view .LVU494
 1929 0052 00BF     		.align	2
 1930              	.L171:
 1931 0054 00300240 		.word	1073885184
 1932              		.cfi_endproc
 1933              	.LFE133:
 1935              		.section	.text.ob_drp_disable,"ax",%progbits
 1936              		.align	1
 1937              		.global	ob_drp_disable
 1938              		.syntax unified
 1939              		.thumb
 1940              		.thumb_func
 1942              	ob_drp_disable:
 1943              	.LFB134:
 628:Drivers/GD32_F470_STD_Driver/Source/gd32f4xx_fmc.c ****     uint32_t reg0 = FMC_OBCTL0;
 1944              		.loc 1 628 1 is_stmt 1 view -0
 1945              		.cfi_startproc
 1946              		@ args = 0, pretend = 0, frame = 0
 1947              		@ frame_needed = 0, uses_anonymous_args = 0
 1948 0000 38B5     		push	{r3, r4, r5, lr}
 1949              	.LCFI13:
 1950              		.cfi_def_cfa_offset 16
 1951              		.cfi_offset 3, -16
 1952              		.cfi_offset 4, -12
ARM GAS  /tmp/ccSpQgdi.s 			page 58


 1953              		.cfi_offset 5, -8
 1954              		.cfi_offset 14, -4
 629:Drivers/GD32_F470_STD_Driver/Source/gd32f4xx_fmc.c ****     uint32_t reg1 = FMC_OBCTL1;
 1955              		.loc 1 629 5 view .LVU496
 629:Drivers/GD32_F470_STD_Driver/Source/gd32f4xx_fmc.c ****     uint32_t reg1 = FMC_OBCTL1;
 1956              		.loc 1 629 14 is_stmt 0 view .LVU497
 1957 0002 164B     		ldr	r3, .L178
 1958 0004 D3F8144C 		ldr	r4, [r3, #3092]
 1959              	.LVL149:
 630:Drivers/GD32_F470_STD_Driver/Source/gd32f4xx_fmc.c ****     fmc_state_enum fmc_state = FMC_READY;
 1960              		.loc 1 630 5 is_stmt 1 view .LVU498
 630:Drivers/GD32_F470_STD_Driver/Source/gd32f4xx_fmc.c ****     fmc_state_enum fmc_state = FMC_READY;
 1961              		.loc 1 630 14 is_stmt 0 view .LVU499
 1962 0008 D3F8185C 		ldr	r5, [r3, #3096]
 1963              	.LVL150:
 631:Drivers/GD32_F470_STD_Driver/Source/gd32f4xx_fmc.c ****     /* wait for the FMC ready */
 1964              		.loc 1 631 5 is_stmt 1 view .LVU500
 633:Drivers/GD32_F470_STD_Driver/Source/gd32f4xx_fmc.c **** 
 1965              		.loc 1 633 5 view .LVU501
 633:Drivers/GD32_F470_STD_Driver/Source/gd32f4xx_fmc.c **** 
 1966              		.loc 1 633 17 is_stmt 0 view .LVU502
 1967 000c 6FF03040 		mvn	r0, #-1342177280
 1968 0010 FFF7FEFF 		bl	fmc_ready_wait
 1969              	.LVL151:
 635:Drivers/GD32_F470_STD_Driver/Source/gd32f4xx_fmc.c ****         if(((uint8_t)(reg0 >> 8U)) == (uint8_t)FMC_NSPC) {
 1970              		.loc 1 635 5 is_stmt 1 view .LVU503
 635:Drivers/GD32_F470_STD_Driver/Source/gd32f4xx_fmc.c ****         if(((uint8_t)(reg0 >> 8U)) == (uint8_t)FMC_NSPC) {
 1971              		.loc 1 635 7 is_stmt 0 view .LVU504
 1972 0014 90B9     		cbnz	r0, .L173
 636:Drivers/GD32_F470_STD_Driver/Source/gd32f4xx_fmc.c ****             /* security protection should be set as low level protection before disable D-BUS read 
 1973              		.loc 1 636 9 is_stmt 1 view .LVU505
 636:Drivers/GD32_F470_STD_Driver/Source/gd32f4xx_fmc.c ****             /* security protection should be set as low level protection before disable D-BUS read 
 1974              		.loc 1 636 13 is_stmt 0 view .LVU506
 1975 0016 C4F30723 		ubfx	r3, r4, #8, #8
 636:Drivers/GD32_F470_STD_Driver/Source/gd32f4xx_fmc.c ****             /* security protection should be set as low level protection before disable D-BUS read 
 1976              		.loc 1 636 11 view .LVU507
 1977 001a AA2B     		cmp	r3, #170
 1978 001c 0FD0     		beq	.L177
 1979              	.L175:
 646:Drivers/GD32_F470_STD_Driver/Source/gd32f4xx_fmc.c ****         reg0 |= ((uint32_t)FMC_NSPC << 8U);
 1980              		.loc 1 646 9 is_stmt 1 view .LVU508
 1981              	.LVL152:
 647:Drivers/GD32_F470_STD_Driver/Source/gd32f4xx_fmc.c ****         reg0 |= FMC_OBCTL0_WP0;
 1982              		.loc 1 647 9 view .LVU509
 648:Drivers/GD32_F470_STD_Driver/Source/gd32f4xx_fmc.c ****         reg0 &= (~FMC_OBCTL0_DRP);
 1983              		.loc 1 648 9 view .LVU510
 649:Drivers/GD32_F470_STD_Driver/Source/gd32f4xx_fmc.c ****         FMC_OBCTL0 = reg0;
 1984              		.loc 1 649 9 view .LVU511
 1985 001e 24F00044 		bic	r4, r4, #-2147483648
 1986              	.LVL153:
 649:Drivers/GD32_F470_STD_Driver/Source/gd32f4xx_fmc.c ****         FMC_OBCTL0 = reg0;
 1987              		.loc 1 649 9 is_stmt 0 view .LVU512
 1988 0022 24F47F44 		bic	r4, r4, #65280
 649:Drivers/GD32_F470_STD_Driver/Source/gd32f4xx_fmc.c ****         FMC_OBCTL0 = reg0;
 1989              		.loc 1 649 14 view .LVU513
 1990 0026 0E4B     		ldr	r3, .L178+4
 1991 0028 2343     		orrs	r3, r3, r4
ARM GAS  /tmp/ccSpQgdi.s 			page 59


 1992              	.LVL154:
 650:Drivers/GD32_F470_STD_Driver/Source/gd32f4xx_fmc.c **** 
 1993              		.loc 1 650 9 is_stmt 1 view .LVU514
 650:Drivers/GD32_F470_STD_Driver/Source/gd32f4xx_fmc.c **** 
 1994              		.loc 1 650 20 is_stmt 0 view .LVU515
 1995 002a 0C4A     		ldr	r2, .L178
 1996 002c C2F8143C 		str	r3, [r2, #3092]
 652:Drivers/GD32_F470_STD_Driver/Source/gd32f4xx_fmc.c ****         FMC_OBCTL1 = reg1;
 1997              		.loc 1 652 9 is_stmt 1 view .LVU516
 652:Drivers/GD32_F470_STD_Driver/Source/gd32f4xx_fmc.c ****         FMC_OBCTL1 = reg1;
 1998              		.loc 1 652 14 is_stmt 0 view .LVU517
 1999 0030 45F07F65 		orr	r5, r5, #267386880
 2000              	.LVL155:
 652:Drivers/GD32_F470_STD_Driver/Source/gd32f4xx_fmc.c ****         FMC_OBCTL1 = reg1;
 2001              		.loc 1 652 14 view .LVU518
 2002 0034 45F47025 		orr	r5, r5, #983040
 2003              	.LVL156:
 653:Drivers/GD32_F470_STD_Driver/Source/gd32f4xx_fmc.c **** 
 2004              		.loc 1 653 9 is_stmt 1 view .LVU519
 653:Drivers/GD32_F470_STD_Driver/Source/gd32f4xx_fmc.c **** 
 2005              		.loc 1 653 20 is_stmt 0 view .LVU520
 2006 0038 C2F8185C 		str	r5, [r2, #3096]
 2007              	.LVL157:
 2008              	.L173:
 656:Drivers/GD32_F470_STD_Driver/Source/gd32f4xx_fmc.c **** 
 2009              		.loc 1 656 1 view .LVU521
 2010 003c 38BD     		pop	{r3, r4, r5, pc}
 2011              	.LVL158:
 2012              	.L177:
 638:Drivers/GD32_F470_STD_Driver/Source/gd32f4xx_fmc.c ****             reg0 |= ((uint32_t)FMC_LSPC << 8U);
 2013              		.loc 1 638 13 is_stmt 1 view .LVU522
 638:Drivers/GD32_F470_STD_Driver/Source/gd32f4xx_fmc.c ****             reg0 |= ((uint32_t)FMC_LSPC << 8U);
 2014              		.loc 1 638 18 is_stmt 0 view .LVU523
 2015 003e 24F47F44 		bic	r4, r4, #65280
 2016              	.LVL159:
 639:Drivers/GD32_F470_STD_Driver/Source/gd32f4xx_fmc.c ****             FMC_OBCTL0 = reg0;
 2017              		.loc 1 639 13 is_stmt 1 view .LVU524
 639:Drivers/GD32_F470_STD_Driver/Source/gd32f4xx_fmc.c ****             FMC_OBCTL0 = reg0;
 2018              		.loc 1 639 18 is_stmt 0 view .LVU525
 2019 0042 44F42B44 		orr	r4, r4, #43776
 2020              	.LVL160:
 640:Drivers/GD32_F470_STD_Driver/Source/gd32f4xx_fmc.c ****             /* set the OB_START bit in OBCTL0 register */
 2021              		.loc 1 640 13 is_stmt 1 view .LVU526
 640:Drivers/GD32_F470_STD_Driver/Source/gd32f4xx_fmc.c ****             /* set the OB_START bit in OBCTL0 register */
 2022              		.loc 1 640 24 is_stmt 0 view .LVU527
 2023 0046 054B     		ldr	r3, .L178
 2024 0048 C3F8144C 		str	r4, [r3, #3092]
 642:Drivers/GD32_F470_STD_Driver/Source/gd32f4xx_fmc.c ****         }
 2025              		.loc 1 642 13 is_stmt 1 view .LVU528
 642:Drivers/GD32_F470_STD_Driver/Source/gd32f4xx_fmc.c ****         }
 2026              		.loc 1 642 24 is_stmt 0 view .LVU529
 2027 004c D3F8142C 		ldr	r2, [r3, #3092]
 2028 0050 42F00202 		orr	r2, r2, #2
 2029 0054 C3F8142C 		str	r2, [r3, #3092]
 2030 0058 E1E7     		b	.L175
 2031              	.L179:
 2032 005a 00BF     		.align	2
ARM GAS  /tmp/ccSpQgdi.s 			page 60


 2033              	.L178:
 2034 005c 00300240 		.word	1073885184
 2035 0060 00AAFF0F 		.word	268413440
 2036              		.cfi_endproc
 2037              	.LFE134:
 2039              		.section	.text.ob_security_protection_config,"ax",%progbits
 2040              		.align	1
 2041              		.global	ob_security_protection_config
 2042              		.syntax unified
 2043              		.thumb
 2044              		.thumb_func
 2046              	ob_security_protection_config:
 2047              	.LVL161:
 2048              	.LFB135:
 669:Drivers/GD32_F470_STD_Driver/Source/gd32f4xx_fmc.c ****     fmc_state_enum fmc_state = FMC_READY;
 2049              		.loc 1 669 1 is_stmt 1 view -0
 2050              		.cfi_startproc
 2051              		@ args = 0, pretend = 0, frame = 0
 2052              		@ frame_needed = 0, uses_anonymous_args = 0
 669:Drivers/GD32_F470_STD_Driver/Source/gd32f4xx_fmc.c ****     fmc_state_enum fmc_state = FMC_READY;
 2053              		.loc 1 669 1 is_stmt 0 view .LVU531
 2054 0000 10B5     		push	{r4, lr}
 2055              	.LCFI14:
 2056              		.cfi_def_cfa_offset 8
 2057              		.cfi_offset 4, -8
 2058              		.cfi_offset 14, -4
 2059 0002 0446     		mov	r4, r0
 670:Drivers/GD32_F470_STD_Driver/Source/gd32f4xx_fmc.c ****     /* wait for the FMC ready */
 2060              		.loc 1 670 5 is_stmt 1 view .LVU532
 2061              	.LVL162:
 672:Drivers/GD32_F470_STD_Driver/Source/gd32f4xx_fmc.c **** 
 2062              		.loc 1 672 5 view .LVU533
 672:Drivers/GD32_F470_STD_Driver/Source/gd32f4xx_fmc.c **** 
 2063              		.loc 1 672 17 is_stmt 0 view .LVU534
 2064 0004 6FF03040 		mvn	r0, #-1342177280
 2065              	.LVL163:
 672:Drivers/GD32_F470_STD_Driver/Source/gd32f4xx_fmc.c **** 
 2066              		.loc 1 672 17 view .LVU535
 2067 0008 FFF7FEFF 		bl	fmc_ready_wait
 2068              	.LVL164:
 674:Drivers/GD32_F470_STD_Driver/Source/gd32f4xx_fmc.c ****         uint32_t reg;
 2069              		.loc 1 674 5 is_stmt 1 view .LVU536
 674:Drivers/GD32_F470_STD_Driver/Source/gd32f4xx_fmc.c ****         uint32_t reg;
 2070              		.loc 1 674 7 is_stmt 0 view .LVU537
 2071 000c 40B9     		cbnz	r0, .L180
 2072              	.LBB2:
 675:Drivers/GD32_F470_STD_Driver/Source/gd32f4xx_fmc.c **** 
 2073              		.loc 1 675 9 is_stmt 1 view .LVU538
 677:Drivers/GD32_F470_STD_Driver/Source/gd32f4xx_fmc.c ****         /* reset the OBCTL0_SPC, set according to ob_spc */
 2074              		.loc 1 677 9 view .LVU539
 677:Drivers/GD32_F470_STD_Driver/Source/gd32f4xx_fmc.c ****         /* reset the OBCTL0_SPC, set according to ob_spc */
 2075              		.loc 1 677 13 is_stmt 0 view .LVU540
 2076 000e 054B     		ldr	r3, .L183
 2077 0010 D3F8140C 		ldr	r0, [r3, #3092]
 2078              	.LVL165:
 679:Drivers/GD32_F470_STD_Driver/Source/gd32f4xx_fmc.c ****         reg |= ((uint32_t)ob_spc << 8U);
 2079              		.loc 1 679 9 is_stmt 1 view .LVU541
ARM GAS  /tmp/ccSpQgdi.s 			page 61


 679:Drivers/GD32_F470_STD_Driver/Source/gd32f4xx_fmc.c ****         reg |= ((uint32_t)ob_spc << 8U);
 2080              		.loc 1 679 13 is_stmt 0 view .LVU542
 2081 0014 20F47F40 		bic	r0, r0, #65280
 2082              	.LVL166:
 680:Drivers/GD32_F470_STD_Driver/Source/gd32f4xx_fmc.c ****         FMC_OBCTL0 = reg;
 2083              		.loc 1 680 9 is_stmt 1 view .LVU543
 680:Drivers/GD32_F470_STD_Driver/Source/gd32f4xx_fmc.c ****         FMC_OBCTL0 = reg;
 2084              		.loc 1 680 13 is_stmt 0 view .LVU544
 2085 0018 40EA0420 		orr	r0, r0, r4, lsl #8
 2086              	.LVL167:
 681:Drivers/GD32_F470_STD_Driver/Source/gd32f4xx_fmc.c ****     }
 2087              		.loc 1 681 9 is_stmt 1 view .LVU545
 681:Drivers/GD32_F470_STD_Driver/Source/gd32f4xx_fmc.c ****     }
 2088              		.loc 1 681 20 is_stmt 0 view .LVU546
 2089 001c C3F8140C 		str	r0, [r3, #3092]
 2090              	.LVL168:
 2091              	.L180:
 681:Drivers/GD32_F470_STD_Driver/Source/gd32f4xx_fmc.c ****     }
 2092              		.loc 1 681 20 view .LVU547
 2093              	.LBE2:
 683:Drivers/GD32_F470_STD_Driver/Source/gd32f4xx_fmc.c **** 
 2094              		.loc 1 683 1 view .LVU548
 2095 0020 10BD     		pop	{r4, pc}
 2096              	.L184:
 2097 0022 00BF     		.align	2
 2098              	.L183:
 2099 0024 00300240 		.word	1073885184
 2100              		.cfi_endproc
 2101              	.LFE135:
 2103              		.section	.text.ob_user_write,"ax",%progbits
 2104              		.align	1
 2105              		.global	ob_user_write
 2106              		.syntax unified
 2107              		.thumb
 2108              		.thumb_func
 2110              	ob_user_write:
 2111              	.LVL169:
 2112              	.LFB136:
 703:Drivers/GD32_F470_STD_Driver/Source/gd32f4xx_fmc.c ****     fmc_state_enum fmc_state = FMC_READY;
 2113              		.loc 1 703 1 is_stmt 1 view -0
 2114              		.cfi_startproc
 2115              		@ args = 0, pretend = 0, frame = 0
 2116              		@ frame_needed = 0, uses_anonymous_args = 0
 703:Drivers/GD32_F470_STD_Driver/Source/gd32f4xx_fmc.c ****     fmc_state_enum fmc_state = FMC_READY;
 2117              		.loc 1 703 1 is_stmt 0 view .LVU550
 2118 0000 F8B5     		push	{r3, r4, r5, r6, r7, lr}
 2119              	.LCFI15:
 2120              		.cfi_def_cfa_offset 24
 2121              		.cfi_offset 3, -24
 2122              		.cfi_offset 4, -20
 2123              		.cfi_offset 5, -16
 2124              		.cfi_offset 6, -12
 2125              		.cfi_offset 7, -8
 2126              		.cfi_offset 14, -4
 2127 0002 0646     		mov	r6, r0
 2128 0004 0D46     		mov	r5, r1
 2129 0006 1446     		mov	r4, r2
ARM GAS  /tmp/ccSpQgdi.s 			page 62


 704:Drivers/GD32_F470_STD_Driver/Source/gd32f4xx_fmc.c **** 
 2130              		.loc 1 704 5 is_stmt 1 view .LVU551
 2131              	.LVL170:
 707:Drivers/GD32_F470_STD_Driver/Source/gd32f4xx_fmc.c **** 
 2132              		.loc 1 707 5 view .LVU552
 707:Drivers/GD32_F470_STD_Driver/Source/gd32f4xx_fmc.c **** 
 2133              		.loc 1 707 17 is_stmt 0 view .LVU553
 2134 0008 6FF03040 		mvn	r0, #-1342177280
 2135              	.LVL171:
 707:Drivers/GD32_F470_STD_Driver/Source/gd32f4xx_fmc.c **** 
 2136              		.loc 1 707 17 view .LVU554
 2137 000c FFF7FEFF 		bl	fmc_ready_wait
 2138              	.LVL172:
 709:Drivers/GD32_F470_STD_Driver/Source/gd32f4xx_fmc.c ****         uint32_t reg;
 2139              		.loc 1 709 5 is_stmt 1 view .LVU555
 709:Drivers/GD32_F470_STD_Driver/Source/gd32f4xx_fmc.c ****         uint32_t reg;
 2140              		.loc 1 709 7 is_stmt 0 view .LVU556
 2141 0010 58B9     		cbnz	r0, .L185
 2142              	.LBB3:
 710:Drivers/GD32_F470_STD_Driver/Source/gd32f4xx_fmc.c **** 
 2143              		.loc 1 710 9 is_stmt 1 view .LVU557
 712:Drivers/GD32_F470_STD_Driver/Source/gd32f4xx_fmc.c ****         /* reset the OB_FWDGT, OB_DEEPSLEEP and OB_STDBY, set according to ob_fwdgt ,ob_deepsleep a
 2144              		.loc 1 712 9 view .LVU558
 712:Drivers/GD32_F470_STD_Driver/Source/gd32f4xx_fmc.c ****         /* reset the OB_FWDGT, OB_DEEPSLEEP and OB_STDBY, set according to ob_fwdgt ,ob_deepsleep a
 2145              		.loc 1 712 13 is_stmt 0 view .LVU559
 2146 0012 064F     		ldr	r7, .L188
 2147 0014 D7F8143C 		ldr	r3, [r7, #3092]
 2148              	.LVL173:
 714:Drivers/GD32_F470_STD_Driver/Source/gd32f4xx_fmc.c ****         FMC_OBCTL0 = (reg | ob_fwdgt | ob_deepsleep | ob_stdby);
 2149              		.loc 1 714 9 is_stmt 1 view .LVU560
 714:Drivers/GD32_F470_STD_Driver/Source/gd32f4xx_fmc.c ****         FMC_OBCTL0 = (reg | ob_fwdgt | ob_deepsleep | ob_stdby);
 2150              		.loc 1 714 13 is_stmt 0 view .LVU561
 2151 0018 23F0E003 		bic	r3, r3, #224
 2152              	.LVL174:
 715:Drivers/GD32_F470_STD_Driver/Source/gd32f4xx_fmc.c ****     }
 2153              		.loc 1 715 9 is_stmt 1 view .LVU562
 715:Drivers/GD32_F470_STD_Driver/Source/gd32f4xx_fmc.c ****     }
 2154              		.loc 1 715 27 is_stmt 0 view .LVU563
 2155 001c 43EA0600 		orr	r0, r3, r6
 2156              	.LVL175:
 715:Drivers/GD32_F470_STD_Driver/Source/gd32f4xx_fmc.c ****     }
 2157              		.loc 1 715 38 view .LVU564
 2158 0020 40EA0501 		orr	r1, r0, r5
 715:Drivers/GD32_F470_STD_Driver/Source/gd32f4xx_fmc.c ****     }
 2159              		.loc 1 715 53 view .LVU565
 2160 0024 2143     		orrs	r1, r1, r4
 715:Drivers/GD32_F470_STD_Driver/Source/gd32f4xx_fmc.c ****     }
 2161              		.loc 1 715 20 view .LVU566
 2162 0026 C7F8141C 		str	r1, [r7, #3092]
 2163              	.LVL176:
 2164              	.L185:
 715:Drivers/GD32_F470_STD_Driver/Source/gd32f4xx_fmc.c ****     }
 2165              		.loc 1 715 20 view .LVU567
 2166              	.LBE3:
 717:Drivers/GD32_F470_STD_Driver/Source/gd32f4xx_fmc.c **** 
 2167              		.loc 1 717 1 view .LVU568
 2168 002a F8BD     		pop	{r3, r4, r5, r6, r7, pc}
ARM GAS  /tmp/ccSpQgdi.s 			page 63


 2169              	.LVL177:
 2170              	.L189:
 717:Drivers/GD32_F470_STD_Driver/Source/gd32f4xx_fmc.c **** 
 2171              		.loc 1 717 1 view .LVU569
 2172              		.align	2
 2173              	.L188:
 2174 002c 00300240 		.word	1073885184
 2175              		.cfi_endproc
 2176              	.LFE136:
 2178              		.text
 2179              	.Letext0:
 2180              		.file 2 "/home/funtime/arm_gcc/gcc-arm-none-eabi-10.3-2021.10/arm-none-eabi/include/machine/_defau
 2181              		.file 3 "/home/funtime/arm_gcc/gcc-arm-none-eabi-10.3-2021.10/arm-none-eabi/include/sys/_stdint.h"
 2182              		.file 4 "Core/Inc/gd32f4xx.h"
 2183              		.file 5 "Drivers/GD32_F470_STD_Driver/Include/gd32f4xx_fmc.h"
ARM GAS  /tmp/ccSpQgdi.s 			page 64

