ARM GAS  /tmp/cc9O1BLI.s 			page 1


   1              		.cpu cortex-m4
   2              		.arch armv7e-m
   3              		.fpu fpv4-sp-d16
   4              		.eabi_attribute 27, 1
   5              		.eabi_attribute 28, 1
   6              		.eabi_attribute 20, 1
   7              		.eabi_attribute 21, 1
   8              		.eabi_attribute 23, 3
   9              		.eabi_attribute 24, 1
  10              		.eabi_attribute 25, 1
  11              		.eabi_attribute 26, 1
  12              		.eabi_attribute 30, 1
  13              		.eabi_attribute 34, 1
  14              		.eabi_attribute 18, 4
  15              		.file	"gd32f4xx_it.c"
  16              		.text
  17              	.Ltext0:
  18              		.cfi_sections	.debug_frame
  19              		.section	.text.NMI_Handler,"ax",%progbits
  20              		.align	1
  21              		.global	NMI_Handler
  22              		.syntax unified
  23              		.thumb
  24              		.thumb_func
  26              	NMI_Handler:
  27              	.LFB116:
  28              		.file 1 "Core/Src/gd32f4xx_it.c"
   1:Core/Src/gd32f4xx_it.c **** /*!
   2:Core/Src/gd32f4xx_it.c ****     \file    gd32f4xx_it.c
   3:Core/Src/gd32f4xx_it.c ****     \brief   interrupt service routines
   4:Core/Src/gd32f4xx_it.c **** 
   5:Core/Src/gd32f4xx_it.c ****     \version 2016-08-15, V1.0.0, firmware for GD32F4xx
   6:Core/Src/gd32f4xx_it.c ****     \version 2018-12-12, V2.0.0, firmware for GD32F4xx
   7:Core/Src/gd32f4xx_it.c ****     \version 2020-09-30, V2.1.0, firmware for GD32F4xx
   8:Core/Src/gd32f4xx_it.c ****     \version 2022-03-09, V3.0.0, firmware for GD32F4xx
   9:Core/Src/gd32f4xx_it.c **** */
  10:Core/Src/gd32f4xx_it.c **** 
  11:Core/Src/gd32f4xx_it.c **** /*
  12:Core/Src/gd32f4xx_it.c ****     Copyright (c) 2022, GigaDevice Semiconductor Inc.
  13:Core/Src/gd32f4xx_it.c **** 
  14:Core/Src/gd32f4xx_it.c ****     Redistribution and use in source and binary forms, with or without modification,
  15:Core/Src/gd32f4xx_it.c **** are permitted provided that the following conditions are met:
  16:Core/Src/gd32f4xx_it.c **** 
  17:Core/Src/gd32f4xx_it.c ****     1. Redistributions of source code must retain the above copyright notice, this
  18:Core/Src/gd32f4xx_it.c ****        list of conditions and the following disclaimer.
  19:Core/Src/gd32f4xx_it.c ****     2. Redistributions in binary form must reproduce the above copyright notice,
  20:Core/Src/gd32f4xx_it.c ****        this list of conditions and the following disclaimer in the documentation
  21:Core/Src/gd32f4xx_it.c ****        and/or other materials provided with the distribution.
  22:Core/Src/gd32f4xx_it.c ****     3. Neither the name of the copyright holder nor the names of its contributors
  23:Core/Src/gd32f4xx_it.c ****        may be used to endorse or promote products derived from this software without
  24:Core/Src/gd32f4xx_it.c ****        specific prior written permission.
  25:Core/Src/gd32f4xx_it.c **** 
  26:Core/Src/gd32f4xx_it.c ****     THIS SOFTWARE IS PROVIDED BY THE COPYRIGHT HOLDERS AND CONTRIBUTORS "AS IS"
  27:Core/Src/gd32f4xx_it.c **** AND ANY EXPRESS OR IMPLIED WARRANTIES, INCLUDING, BUT NOT LIMITED TO, THE IMPLIED
  28:Core/Src/gd32f4xx_it.c **** WARRANTIES OF MERCHANTABILITY AND FITNESS FOR A PARTICULAR PURPOSE ARE DISCLAIMED.
  29:Core/Src/gd32f4xx_it.c **** IN NO EVENT SHALL THE COPYRIGHT HOLDER OR CONTRIBUTORS BE LIABLE FOR ANY DIRECT,
  30:Core/Src/gd32f4xx_it.c **** INDIRECT, INCIDENTAL, SPECIAL, EXEMPLARY, OR CONSEQUENTIAL DAMAGES (INCLUDING, BUT
ARM GAS  /tmp/cc9O1BLI.s 			page 2


  31:Core/Src/gd32f4xx_it.c **** NOT LIMITED TO, PROCUREMENT OF SUBSTITUTE GOODS OR SERVICES; LOSS OF USE, DATA, OR
  32:Core/Src/gd32f4xx_it.c **** PROFITS; OR BUSINESS INTERRUPTION) HOWEVER CAUSED AND ON ANY THEORY OF LIABILITY,
  33:Core/Src/gd32f4xx_it.c **** WHETHER IN CONTRACT, STRICT LIABILITY, OR TORT (INCLUDING NEGLIGENCE OR OTHERWISE)
  34:Core/Src/gd32f4xx_it.c **** ARISING IN ANY WAY OUT OF THE USE OF THIS SOFTWARE, EVEN IF ADVISED OF THE POSSIBILITY
  35:Core/Src/gd32f4xx_it.c **** OF SUCH DAMAGE.
  36:Core/Src/gd32f4xx_it.c **** */
  37:Core/Src/gd32f4xx_it.c **** 
  38:Core/Src/gd32f4xx_it.c **** #include "gd32f4xx_it.h"
  39:Core/Src/gd32f4xx_it.c **** #include "systick.h"
  40:Core/Src/gd32f4xx_it.c **** 
  41:Core/Src/gd32f4xx_it.c **** /*!
  42:Core/Src/gd32f4xx_it.c ****     \brief      this function handles NMI exception
  43:Core/Src/gd32f4xx_it.c ****     \param[in]  none
  44:Core/Src/gd32f4xx_it.c ****     \param[out] none
  45:Core/Src/gd32f4xx_it.c ****     \retval     none
  46:Core/Src/gd32f4xx_it.c **** */
  47:Core/Src/gd32f4xx_it.c **** void NMI_Handler(void)
  48:Core/Src/gd32f4xx_it.c **** {
  29              		.loc 1 48 1 view -0
  30              		.cfi_startproc
  31              		@ args = 0, pretend = 0, frame = 0
  32              		@ frame_needed = 0, uses_anonymous_args = 0
  33              		@ link register save eliminated.
  49:Core/Src/gd32f4xx_it.c **** }
  34              		.loc 1 49 1 view .LVU1
  35 0000 7047     		bx	lr
  36              		.cfi_endproc
  37              	.LFE116:
  39              		.section	.text.HardFault_Handler,"ax",%progbits
  40              		.align	1
  41              		.global	HardFault_Handler
  42              		.syntax unified
  43              		.thumb
  44              		.thumb_func
  46              	HardFault_Handler:
  47              	.LFB117:
  50:Core/Src/gd32f4xx_it.c **** 
  51:Core/Src/gd32f4xx_it.c **** /*!
  52:Core/Src/gd32f4xx_it.c ****     \brief      this function handles HardFault exception
  53:Core/Src/gd32f4xx_it.c ****     \param[in]  none
  54:Core/Src/gd32f4xx_it.c ****     \param[out] none
  55:Core/Src/gd32f4xx_it.c ****     \retval     none
  56:Core/Src/gd32f4xx_it.c **** */
  57:Core/Src/gd32f4xx_it.c **** void HardFault_Handler(void)
  58:Core/Src/gd32f4xx_it.c **** {
  48              		.loc 1 58 1 view -0
  49              		.cfi_startproc
  50              		@ Volatile: function does not return.
  51              		@ args = 0, pretend = 0, frame = 0
  52              		@ frame_needed = 0, uses_anonymous_args = 0
  53              		@ link register save eliminated.
  54              	.L3:
  59:Core/Src/gd32f4xx_it.c ****     /* if Hard Fault exception occurs, go to infinite loop */
  60:Core/Src/gd32f4xx_it.c ****     while(1) {
  55              		.loc 1 60 5 discriminator 1 view .LVU3
  61:Core/Src/gd32f4xx_it.c ****     }
  56              		.loc 1 61 5 discriminator 1 view .LVU4
ARM GAS  /tmp/cc9O1BLI.s 			page 3


  60:Core/Src/gd32f4xx_it.c ****     }
  57              		.loc 1 60 10 discriminator 1 view .LVU5
  58 0000 FEE7     		b	.L3
  59              		.cfi_endproc
  60              	.LFE117:
  62              		.section	.text.MemManage_Handler,"ax",%progbits
  63              		.align	1
  64              		.global	MemManage_Handler
  65              		.syntax unified
  66              		.thumb
  67              		.thumb_func
  69              	MemManage_Handler:
  70              	.LFB118:
  62:Core/Src/gd32f4xx_it.c **** }
  63:Core/Src/gd32f4xx_it.c **** 
  64:Core/Src/gd32f4xx_it.c **** /*!
  65:Core/Src/gd32f4xx_it.c ****     \brief      this function handles MemManage exception
  66:Core/Src/gd32f4xx_it.c ****     \param[in]  none
  67:Core/Src/gd32f4xx_it.c ****     \param[out] none
  68:Core/Src/gd32f4xx_it.c ****     \retval     none
  69:Core/Src/gd32f4xx_it.c **** */
  70:Core/Src/gd32f4xx_it.c **** void MemManage_Handler(void)
  71:Core/Src/gd32f4xx_it.c **** {
  71              		.loc 1 71 1 view -0
  72              		.cfi_startproc
  73              		@ Volatile: function does not return.
  74              		@ args = 0, pretend = 0, frame = 0
  75              		@ frame_needed = 0, uses_anonymous_args = 0
  76              		@ link register save eliminated.
  77              	.L5:
  72:Core/Src/gd32f4xx_it.c ****     /* if Memory Manage exception occurs, go to infinite loop */
  73:Core/Src/gd32f4xx_it.c ****     while(1) {
  78              		.loc 1 73 5 discriminator 1 view .LVU7
  74:Core/Src/gd32f4xx_it.c ****     }
  79              		.loc 1 74 5 discriminator 1 view .LVU8
  73:Core/Src/gd32f4xx_it.c ****     }
  80              		.loc 1 73 10 discriminator 1 view .LVU9
  81 0000 FEE7     		b	.L5
  82              		.cfi_endproc
  83              	.LFE118:
  85              		.section	.text.BusFault_Handler,"ax",%progbits
  86              		.align	1
  87              		.global	BusFault_Handler
  88              		.syntax unified
  89              		.thumb
  90              		.thumb_func
  92              	BusFault_Handler:
  93              	.LFB119:
  75:Core/Src/gd32f4xx_it.c **** }
  76:Core/Src/gd32f4xx_it.c **** 
  77:Core/Src/gd32f4xx_it.c **** /*!
  78:Core/Src/gd32f4xx_it.c ****     \brief      this function handles BusFault exception
  79:Core/Src/gd32f4xx_it.c ****     \param[in]  none
  80:Core/Src/gd32f4xx_it.c ****     \param[out] none
  81:Core/Src/gd32f4xx_it.c ****     \retval     none
  82:Core/Src/gd32f4xx_it.c **** */
  83:Core/Src/gd32f4xx_it.c **** void BusFault_Handler(void)
ARM GAS  /tmp/cc9O1BLI.s 			page 4


  84:Core/Src/gd32f4xx_it.c **** {
  94              		.loc 1 84 1 view -0
  95              		.cfi_startproc
  96              		@ Volatile: function does not return.
  97              		@ args = 0, pretend = 0, frame = 0
  98              		@ frame_needed = 0, uses_anonymous_args = 0
  99              		@ link register save eliminated.
 100              	.L7:
  85:Core/Src/gd32f4xx_it.c ****     /* if Bus Fault exception occurs, go to infinite loop */
  86:Core/Src/gd32f4xx_it.c ****     while(1) {
 101              		.loc 1 86 5 discriminator 1 view .LVU11
  87:Core/Src/gd32f4xx_it.c ****     }
 102              		.loc 1 87 5 discriminator 1 view .LVU12
  86:Core/Src/gd32f4xx_it.c ****     }
 103              		.loc 1 86 10 discriminator 1 view .LVU13
 104 0000 FEE7     		b	.L7
 105              		.cfi_endproc
 106              	.LFE119:
 108              		.section	.text.UsageFault_Handler,"ax",%progbits
 109              		.align	1
 110              		.global	UsageFault_Handler
 111              		.syntax unified
 112              		.thumb
 113              		.thumb_func
 115              	UsageFault_Handler:
 116              	.LFB120:
  88:Core/Src/gd32f4xx_it.c **** }
  89:Core/Src/gd32f4xx_it.c **** 
  90:Core/Src/gd32f4xx_it.c **** /*!
  91:Core/Src/gd32f4xx_it.c ****     \brief      this function handles UsageFault exception
  92:Core/Src/gd32f4xx_it.c ****     \param[in]  none
  93:Core/Src/gd32f4xx_it.c ****     \param[out] none
  94:Core/Src/gd32f4xx_it.c ****     \retval     none
  95:Core/Src/gd32f4xx_it.c **** */
  96:Core/Src/gd32f4xx_it.c **** void UsageFault_Handler(void)
  97:Core/Src/gd32f4xx_it.c **** {
 117              		.loc 1 97 1 view -0
 118              		.cfi_startproc
 119              		@ Volatile: function does not return.
 120              		@ args = 0, pretend = 0, frame = 0
 121              		@ frame_needed = 0, uses_anonymous_args = 0
 122              		@ link register save eliminated.
 123              	.L9:
  98:Core/Src/gd32f4xx_it.c ****     /* if Usage Fault exception occurs, go to infinite loop */
  99:Core/Src/gd32f4xx_it.c ****     while(1) {
 124              		.loc 1 99 5 discriminator 1 view .LVU15
 100:Core/Src/gd32f4xx_it.c ****     }
 125              		.loc 1 100 5 discriminator 1 view .LVU16
  99:Core/Src/gd32f4xx_it.c ****     }
 126              		.loc 1 99 10 discriminator 1 view .LVU17
 127 0000 FEE7     		b	.L9
 128              		.cfi_endproc
 129              	.LFE120:
 131              		.section	.text.SVC_Handler,"ax",%progbits
 132              		.align	1
 133              		.global	SVC_Handler
 134              		.syntax unified
ARM GAS  /tmp/cc9O1BLI.s 			page 5


 135              		.thumb
 136              		.thumb_func
 138              	SVC_Handler:
 139              	.LFB121:
 101:Core/Src/gd32f4xx_it.c **** }
 102:Core/Src/gd32f4xx_it.c **** 
 103:Core/Src/gd32f4xx_it.c **** /*!
 104:Core/Src/gd32f4xx_it.c ****     \brief      this function handles SVC exception
 105:Core/Src/gd32f4xx_it.c ****     \param[in]  none
 106:Core/Src/gd32f4xx_it.c ****     \param[out] none
 107:Core/Src/gd32f4xx_it.c ****     \retval     none
 108:Core/Src/gd32f4xx_it.c **** */
 109:Core/Src/gd32f4xx_it.c **** void SVC_Handler(void)
 110:Core/Src/gd32f4xx_it.c **** {
 140              		.loc 1 110 1 view -0
 141              		.cfi_startproc
 142              		@ args = 0, pretend = 0, frame = 0
 143              		@ frame_needed = 0, uses_anonymous_args = 0
 144              		@ link register save eliminated.
 111:Core/Src/gd32f4xx_it.c **** }
 145              		.loc 1 111 1 view .LVU19
 146 0000 7047     		bx	lr
 147              		.cfi_endproc
 148              	.LFE121:
 150              		.section	.text.DebugMon_Handler,"ax",%progbits
 151              		.align	1
 152              		.global	DebugMon_Handler
 153              		.syntax unified
 154              		.thumb
 155              		.thumb_func
 157              	DebugMon_Handler:
 158              	.LFB122:
 112:Core/Src/gd32f4xx_it.c **** 
 113:Core/Src/gd32f4xx_it.c **** /*!
 114:Core/Src/gd32f4xx_it.c ****     \brief      this function handles DebugMon exception
 115:Core/Src/gd32f4xx_it.c ****     \param[in]  none
 116:Core/Src/gd32f4xx_it.c ****     \param[out] none
 117:Core/Src/gd32f4xx_it.c ****     \retval     none
 118:Core/Src/gd32f4xx_it.c **** */
 119:Core/Src/gd32f4xx_it.c **** void DebugMon_Handler(void)
 120:Core/Src/gd32f4xx_it.c **** {
 159              		.loc 1 120 1 view -0
 160              		.cfi_startproc
 161              		@ args = 0, pretend = 0, frame = 0
 162              		@ frame_needed = 0, uses_anonymous_args = 0
 163              		@ link register save eliminated.
 121:Core/Src/gd32f4xx_it.c **** }
 164              		.loc 1 121 1 view .LVU21
 165 0000 7047     		bx	lr
 166              		.cfi_endproc
 167              	.LFE122:
 169              		.section	.text.PendSV_Handler,"ax",%progbits
 170              		.align	1
 171              		.global	PendSV_Handler
 172              		.syntax unified
 173              		.thumb
 174              		.thumb_func
ARM GAS  /tmp/cc9O1BLI.s 			page 6


 176              	PendSV_Handler:
 177              	.LFB123:
 122:Core/Src/gd32f4xx_it.c **** 
 123:Core/Src/gd32f4xx_it.c **** /*!
 124:Core/Src/gd32f4xx_it.c ****     \brief      this function handles PendSV exception
 125:Core/Src/gd32f4xx_it.c ****     \param[in]  none
 126:Core/Src/gd32f4xx_it.c ****     \param[out] none
 127:Core/Src/gd32f4xx_it.c ****     \retval     none
 128:Core/Src/gd32f4xx_it.c **** */
 129:Core/Src/gd32f4xx_it.c **** void PendSV_Handler(void)
 130:Core/Src/gd32f4xx_it.c **** {
 178              		.loc 1 130 1 view -0
 179              		.cfi_startproc
 180              		@ args = 0, pretend = 0, frame = 0
 181              		@ frame_needed = 0, uses_anonymous_args = 0
 182              		@ link register save eliminated.
 131:Core/Src/gd32f4xx_it.c **** }
 183              		.loc 1 131 1 view .LVU23
 184 0000 7047     		bx	lr
 185              		.cfi_endproc
 186              	.LFE123:
 188              		.section	.text.SysTick_Handler,"ax",%progbits
 189              		.align	1
 190              		.global	SysTick_Handler
 191              		.syntax unified
 192              		.thumb
 193              		.thumb_func
 195              	SysTick_Handler:
 196              	.LFB124:
 132:Core/Src/gd32f4xx_it.c **** 
 133:Core/Src/gd32f4xx_it.c **** /*!
 134:Core/Src/gd32f4xx_it.c ****     \brief      this function handles SysTick exception
 135:Core/Src/gd32f4xx_it.c ****     \param[in]  none
 136:Core/Src/gd32f4xx_it.c ****     \param[out] none
 137:Core/Src/gd32f4xx_it.c ****     \retval     none
 138:Core/Src/gd32f4xx_it.c **** */
 139:Core/Src/gd32f4xx_it.c **** void SysTick_Handler(void)
 140:Core/Src/gd32f4xx_it.c **** {
 197              		.loc 1 140 1 view -0
 198              		.cfi_startproc
 199              		@ args = 0, pretend = 0, frame = 0
 200              		@ frame_needed = 0, uses_anonymous_args = 0
 201 0000 08B5     		push	{r3, lr}
 202              	.LCFI0:
 203              		.cfi_def_cfa_offset 8
 204              		.cfi_offset 3, -8
 205              		.cfi_offset 14, -4
 141:Core/Src/gd32f4xx_it.c ****     delay_decrement();
 206              		.loc 1 141 5 view .LVU25
 207 0002 FFF7FEFF 		bl	delay_decrement
 208              	.LVL0:
 142:Core/Src/gd32f4xx_it.c **** }
 209              		.loc 1 142 1 is_stmt 0 view .LVU26
 210 0006 08BD     		pop	{r3, pc}
 211              		.cfi_endproc
 212              	.LFE124:
 214              		.text
ARM GAS  /tmp/cc9O1BLI.s 			page 7


 215              	.Letext0:
 216              		.file 2 "Core/Inc/systick.h"
ARM GAS  /tmp/cc9O1BLI.s 			page 8

