ARM GAS  /tmp/ccLXJ74X.s 			page 1


   1              		.cpu cortex-m4
   2              		.arch armv7e-m
   3              		.fpu fpv4-sp-d16
   4              		.eabi_attribute 27, 1
   5              		.eabi_attribute 28, 1
   6              		.eabi_attribute 20, 1
   7              		.eabi_attribute 21, 1
   8              		.eabi_attribute 23, 3
   9              		.eabi_attribute 24, 1
  10              		.eabi_attribute 25, 1
  11              		.eabi_attribute 26, 1
  12              		.eabi_attribute 30, 1
  13              		.eabi_attribute 34, 1
  14              		.eabi_attribute 18, 4
  15              		.file	"gd32f4xx_usart.c"
  16              		.text
  17              	.Ltext0:
  18              		.cfi_sections	.debug_frame
  19              		.section	.text.usart_deinit,"ax",%progbits
  20              		.align	1
  21              		.global	usart_deinit
  22              		.syntax unified
  23              		.thumb
  24              		.thumb_func
  26              	usart_deinit:
  27              	.LVL0:
  28              	.LFB116:
  29              		.file 1 "Drivers/GD32_F470_STD_Driver/Source/gd32f4xx_usart.c"
   1:Drivers/GD32_F470_STD_Driver/Source/gd32f4xx_usart.c **** /*!
   2:Drivers/GD32_F470_STD_Driver/Source/gd32f4xx_usart.c ****     \file    gd32f4xx_usart.c
   3:Drivers/GD32_F470_STD_Driver/Source/gd32f4xx_usart.c ****     \brief   USART driver
   4:Drivers/GD32_F470_STD_Driver/Source/gd32f4xx_usart.c **** 
   5:Drivers/GD32_F470_STD_Driver/Source/gd32f4xx_usart.c ****     \version 2016-08-15, V1.0.0, firmware for GD32F4xx
   6:Drivers/GD32_F470_STD_Driver/Source/gd32f4xx_usart.c ****     \version 2018-12-12, V2.0.0, firmware for GD32F4xx
   7:Drivers/GD32_F470_STD_Driver/Source/gd32f4xx_usart.c ****     \version 2020-09-30, V2.1.0, firmware for GD32F4xx
   8:Drivers/GD32_F470_STD_Driver/Source/gd32f4xx_usart.c ****     \version 2022-03-09, V3.0.0, firmware for GD32F4xx
   9:Drivers/GD32_F470_STD_Driver/Source/gd32f4xx_usart.c **** */
  10:Drivers/GD32_F470_STD_Driver/Source/gd32f4xx_usart.c **** 
  11:Drivers/GD32_F470_STD_Driver/Source/gd32f4xx_usart.c **** /*
  12:Drivers/GD32_F470_STD_Driver/Source/gd32f4xx_usart.c ****     Copyright (c) 2022, GigaDevice Semiconductor Inc.
  13:Drivers/GD32_F470_STD_Driver/Source/gd32f4xx_usart.c **** 
  14:Drivers/GD32_F470_STD_Driver/Source/gd32f4xx_usart.c ****     Redistribution and use in source and binary forms, with or without modification,
  15:Drivers/GD32_F470_STD_Driver/Source/gd32f4xx_usart.c **** are permitted provided that the following conditions are met:
  16:Drivers/GD32_F470_STD_Driver/Source/gd32f4xx_usart.c **** 
  17:Drivers/GD32_F470_STD_Driver/Source/gd32f4xx_usart.c ****     1. Redistributions of source code must retain the above copyright notice, this
  18:Drivers/GD32_F470_STD_Driver/Source/gd32f4xx_usart.c ****        list of conditions and the following disclaimer.
  19:Drivers/GD32_F470_STD_Driver/Source/gd32f4xx_usart.c ****     2. Redistributions in binary form must reproduce the above copyright notice,
  20:Drivers/GD32_F470_STD_Driver/Source/gd32f4xx_usart.c ****        this list of conditions and the following disclaimer in the documentation
  21:Drivers/GD32_F470_STD_Driver/Source/gd32f4xx_usart.c ****        and/or other materials provided with the distribution.
  22:Drivers/GD32_F470_STD_Driver/Source/gd32f4xx_usart.c ****     3. Neither the name of the copyright holder nor the names of its contributors
  23:Drivers/GD32_F470_STD_Driver/Source/gd32f4xx_usart.c ****        may be used to endorse or promote products derived from this software without
  24:Drivers/GD32_F470_STD_Driver/Source/gd32f4xx_usart.c ****        specific prior written permission.
  25:Drivers/GD32_F470_STD_Driver/Source/gd32f4xx_usart.c **** 
  26:Drivers/GD32_F470_STD_Driver/Source/gd32f4xx_usart.c ****     THIS SOFTWARE IS PROVIDED BY THE COPYRIGHT HOLDERS AND CONTRIBUTORS "AS IS"
  27:Drivers/GD32_F470_STD_Driver/Source/gd32f4xx_usart.c **** AND ANY EXPRESS OR IMPLIED WARRANTIES, INCLUDING, BUT NOT LIMITED TO, THE IMPLIED
  28:Drivers/GD32_F470_STD_Driver/Source/gd32f4xx_usart.c **** WARRANTIES OF MERCHANTABILITY AND FITNESS FOR A PARTICULAR PURPOSE ARE DISCLAIMED.
  29:Drivers/GD32_F470_STD_Driver/Source/gd32f4xx_usart.c **** IN NO EVENT SHALL THE COPYRIGHT HOLDER OR CONTRIBUTORS BE LIABLE FOR ANY DIRECT,
ARM GAS  /tmp/ccLXJ74X.s 			page 2


  30:Drivers/GD32_F470_STD_Driver/Source/gd32f4xx_usart.c **** INDIRECT, INCIDENTAL, SPECIAL, EXEMPLARY, OR CONSEQUENTIAL DAMAGES (INCLUDING, BUT
  31:Drivers/GD32_F470_STD_Driver/Source/gd32f4xx_usart.c **** NOT LIMITED TO, PROCUREMENT OF SUBSTITUTE GOODS OR SERVICES; LOSS OF USE, DATA, OR
  32:Drivers/GD32_F470_STD_Driver/Source/gd32f4xx_usart.c **** PROFITS; OR BUSINESS INTERRUPTION) HOWEVER CAUSED AND ON ANY THEORY OF LIABILITY,
  33:Drivers/GD32_F470_STD_Driver/Source/gd32f4xx_usart.c **** WHETHER IN CONTRACT, STRICT LIABILITY, OR TORT (INCLUDING NEGLIGENCE OR OTHERWISE)
  34:Drivers/GD32_F470_STD_Driver/Source/gd32f4xx_usart.c **** ARISING IN ANY WAY OUT OF THE USE OF THIS SOFTWARE, EVEN IF ADVISED OF THE POSSIBILITY
  35:Drivers/GD32_F470_STD_Driver/Source/gd32f4xx_usart.c **** OF SUCH DAMAGE.
  36:Drivers/GD32_F470_STD_Driver/Source/gd32f4xx_usart.c **** */
  37:Drivers/GD32_F470_STD_Driver/Source/gd32f4xx_usart.c **** 
  38:Drivers/GD32_F470_STD_Driver/Source/gd32f4xx_usart.c **** #include "gd32f4xx_usart.h"
  39:Drivers/GD32_F470_STD_Driver/Source/gd32f4xx_usart.c **** 
  40:Drivers/GD32_F470_STD_Driver/Source/gd32f4xx_usart.c **** /* USART register bit offset */
  41:Drivers/GD32_F470_STD_Driver/Source/gd32f4xx_usart.c **** #define GP_GUAT_OFFSET            ((uint32_t)8U)       /* bit offset of GUAT in USART_GP */
  42:Drivers/GD32_F470_STD_Driver/Source/gd32f4xx_usart.c **** #define CTL3_SCRTNUM_OFFSET       ((uint32_t)1U)       /* bit offset of SCRTNUM in USART_CTL3 */
  43:Drivers/GD32_F470_STD_Driver/Source/gd32f4xx_usart.c **** #define RT_BL_OFFSET              ((uint32_t)24U)      /* bit offset of BL in USART_RT */
  44:Drivers/GD32_F470_STD_Driver/Source/gd32f4xx_usart.c **** 
  45:Drivers/GD32_F470_STD_Driver/Source/gd32f4xx_usart.c **** /*!
  46:Drivers/GD32_F470_STD_Driver/Source/gd32f4xx_usart.c ****     \brief    reset USART/UART
  47:Drivers/GD32_F470_STD_Driver/Source/gd32f4xx_usart.c ****     \param[in]  usart_periph: USARTx(x=0,1,2,5)/UARTx(x=3,4,6,7)
  48:Drivers/GD32_F470_STD_Driver/Source/gd32f4xx_usart.c ****     \param[out] none
  49:Drivers/GD32_F470_STD_Driver/Source/gd32f4xx_usart.c ****     \retval     none
  50:Drivers/GD32_F470_STD_Driver/Source/gd32f4xx_usart.c **** */
  51:Drivers/GD32_F470_STD_Driver/Source/gd32f4xx_usart.c **** void usart_deinit(uint32_t usart_periph)
  52:Drivers/GD32_F470_STD_Driver/Source/gd32f4xx_usart.c **** {
  30              		.loc 1 52 1 view -0
  31              		.cfi_startproc
  32              		@ args = 0, pretend = 0, frame = 0
  33              		@ frame_needed = 0, uses_anonymous_args = 0
  34              		.loc 1 52 1 is_stmt 0 view .LVU1
  35 0000 08B5     		push	{r3, lr}
  36              	.LCFI0:
  37              		.cfi_def_cfa_offset 8
  38              		.cfi_offset 3, -8
  39              		.cfi_offset 14, -4
  53:Drivers/GD32_F470_STD_Driver/Source/gd32f4xx_usart.c ****     switch(usart_periph) {
  40              		.loc 1 53 5 is_stmt 1 view .LVU2
  41 0002 334B     		ldr	r3, .L16
  42 0004 9842     		cmp	r0, r3
  43 0006 5AD0     		beq	.L2
  44 0008 21D8     		bhi	.L3
  45 000a A3F53053 		sub	r3, r3, #11264
  46 000e 9842     		cmp	r0, r3
  47 0010 4CD0     		beq	.L4
  48 0012 0BD9     		bls	.L14
  49 0014 2F4B     		ldr	r3, .L16+4
  50 0016 9842     		cmp	r0, r3
  51 0018 3ED1     		bne	.L1
  54:Drivers/GD32_F470_STD_Driver/Source/gd32f4xx_usart.c ****     case USART0:
  55:Drivers/GD32_F470_STD_Driver/Source/gd32f4xx_usart.c ****         rcu_periph_reset_enable(RCU_USART0RST);
  56:Drivers/GD32_F470_STD_Driver/Source/gd32f4xx_usart.c ****         rcu_periph_reset_disable(RCU_USART0RST);
  57:Drivers/GD32_F470_STD_Driver/Source/gd32f4xx_usart.c ****         break;
  58:Drivers/GD32_F470_STD_Driver/Source/gd32f4xx_usart.c ****     case USART1:
  59:Drivers/GD32_F470_STD_Driver/Source/gd32f4xx_usart.c ****         rcu_periph_reset_enable(RCU_USART1RST);
  60:Drivers/GD32_F470_STD_Driver/Source/gd32f4xx_usart.c ****         rcu_periph_reset_disable(RCU_USART1RST);
  61:Drivers/GD32_F470_STD_Driver/Source/gd32f4xx_usart.c ****         break;
  62:Drivers/GD32_F470_STD_Driver/Source/gd32f4xx_usart.c ****     case USART2:
  63:Drivers/GD32_F470_STD_Driver/Source/gd32f4xx_usart.c ****         rcu_periph_reset_enable(RCU_USART2RST);
  64:Drivers/GD32_F470_STD_Driver/Source/gd32f4xx_usart.c ****         rcu_periph_reset_disable(RCU_USART2RST);
ARM GAS  /tmp/ccLXJ74X.s 			page 3


  65:Drivers/GD32_F470_STD_Driver/Source/gd32f4xx_usart.c ****         break;
  66:Drivers/GD32_F470_STD_Driver/Source/gd32f4xx_usart.c ****     case USART5:
  67:Drivers/GD32_F470_STD_Driver/Source/gd32f4xx_usart.c ****         rcu_periph_reset_enable(RCU_USART5RST);
  68:Drivers/GD32_F470_STD_Driver/Source/gd32f4xx_usart.c ****         rcu_periph_reset_disable(RCU_USART5RST);
  69:Drivers/GD32_F470_STD_Driver/Source/gd32f4xx_usart.c ****         break;
  70:Drivers/GD32_F470_STD_Driver/Source/gd32f4xx_usart.c ****     case UART3:
  71:Drivers/GD32_F470_STD_Driver/Source/gd32f4xx_usart.c ****         rcu_periph_reset_enable(RCU_UART3RST);
  72:Drivers/GD32_F470_STD_Driver/Source/gd32f4xx_usart.c ****         rcu_periph_reset_disable(RCU_UART3RST);
  73:Drivers/GD32_F470_STD_Driver/Source/gd32f4xx_usart.c ****         break;
  74:Drivers/GD32_F470_STD_Driver/Source/gd32f4xx_usart.c ****     case UART4:
  75:Drivers/GD32_F470_STD_Driver/Source/gd32f4xx_usart.c ****         rcu_periph_reset_enable(RCU_UART4RST);
  52              		.loc 1 75 9 view .LVU3
  53 001a 40F61400 		movw	r0, #2068
  54              	.LVL1:
  55              		.loc 1 75 9 is_stmt 0 view .LVU4
  56 001e FFF7FEFF 		bl	rcu_periph_reset_enable
  57              	.LVL2:
  76:Drivers/GD32_F470_STD_Driver/Source/gd32f4xx_usart.c ****         rcu_periph_reset_disable(RCU_UART4RST);
  58              		.loc 1 76 9 is_stmt 1 view .LVU5
  59 0022 40F61400 		movw	r0, #2068
  60 0026 FFF7FEFF 		bl	rcu_periph_reset_disable
  61              	.LVL3:
  77:Drivers/GD32_F470_STD_Driver/Source/gd32f4xx_usart.c ****         break;
  62              		.loc 1 77 9 view .LVU6
  63 002a 35E0     		b	.L1
  64              	.LVL4:
  65              	.L14:
  53:Drivers/GD32_F470_STD_Driver/Source/gd32f4xx_usart.c ****     case USART0:
  66              		.loc 1 53 5 is_stmt 0 view .LVU7
  67 002c A3F50063 		sub	r3, r3, #2048
  68 0030 9842     		cmp	r0, r3
  69 0032 32D0     		beq	.L6
  70 0034 03F58063 		add	r3, r3, #1024
  71 0038 9842     		cmp	r0, r3
  72 003a 2DD1     		bne	.L1
  63:Drivers/GD32_F470_STD_Driver/Source/gd32f4xx_usart.c ****         rcu_periph_reset_disable(RCU_USART2RST);
  73              		.loc 1 63 9 is_stmt 1 view .LVU8
  74 003c 40F61200 		movw	r0, #2066
  75              	.LVL5:
  63:Drivers/GD32_F470_STD_Driver/Source/gd32f4xx_usart.c ****         rcu_periph_reset_disable(RCU_USART2RST);
  76              		.loc 1 63 9 is_stmt 0 view .LVU9
  77 0040 FFF7FEFF 		bl	rcu_periph_reset_enable
  78              	.LVL6:
  64:Drivers/GD32_F470_STD_Driver/Source/gd32f4xx_usart.c ****         break;
  79              		.loc 1 64 9 is_stmt 1 view .LVU10
  80 0044 40F61200 		movw	r0, #2066
  81 0048 FFF7FEFF 		bl	rcu_periph_reset_disable
  82              	.LVL7:
  65:Drivers/GD32_F470_STD_Driver/Source/gd32f4xx_usart.c ****     case USART5:
  83              		.loc 1 65 9 view .LVU11
  84 004c 24E0     		b	.L1
  85              	.LVL8:
  86              	.L3:
  53:Drivers/GD32_F470_STD_Driver/Source/gd32f4xx_usart.c ****     case USART0:
  87              		.loc 1 53 5 is_stmt 0 view .LVU12
  88 004e 224B     		ldr	r3, .L16+8
  89 0050 9842     		cmp	r0, r3
ARM GAS  /tmp/ccLXJ74X.s 			page 4


  90 0052 19D0     		beq	.L10
  91 0054 03F58063 		add	r3, r3, #1024
  92 0058 9842     		cmp	r0, r3
  93 005a 08D1     		bne	.L15
  67:Drivers/GD32_F470_STD_Driver/Source/gd32f4xx_usart.c ****         rcu_periph_reset_disable(RCU_USART5RST);
  94              		.loc 1 67 9 is_stmt 1 view .LVU13
  95 005c 40F60510 		movw	r0, #2309
  96              	.LVL9:
  67:Drivers/GD32_F470_STD_Driver/Source/gd32f4xx_usart.c ****         rcu_periph_reset_disable(RCU_USART5RST);
  97              		.loc 1 67 9 is_stmt 0 view .LVU14
  98 0060 FFF7FEFF 		bl	rcu_periph_reset_enable
  99              	.LVL10:
  68:Drivers/GD32_F470_STD_Driver/Source/gd32f4xx_usart.c ****         break;
 100              		.loc 1 68 9 is_stmt 1 view .LVU15
 101 0064 40F60510 		movw	r0, #2309
 102 0068 FFF7FEFF 		bl	rcu_periph_reset_disable
 103              	.LVL11:
  69:Drivers/GD32_F470_STD_Driver/Source/gd32f4xx_usart.c ****     case UART3:
 104              		.loc 1 69 9 view .LVU16
 105 006c 14E0     		b	.L1
 106              	.LVL12:
 107              	.L15:
  53:Drivers/GD32_F470_STD_Driver/Source/gd32f4xx_usart.c ****     case USART0:
 108              		.loc 1 53 5 is_stmt 0 view .LVU17
 109 006e A3F51843 		sub	r3, r3, #38912
 110 0072 9842     		cmp	r0, r3
 111 0074 10D1     		bne	.L1
  78:Drivers/GD32_F470_STD_Driver/Source/gd32f4xx_usart.c ****     case UART6:
  79:Drivers/GD32_F470_STD_Driver/Source/gd32f4xx_usart.c ****         rcu_periph_reset_enable(RCU_UART6RST);
  80:Drivers/GD32_F470_STD_Driver/Source/gd32f4xx_usart.c ****         rcu_periph_reset_disable(RCU_UART6RST);
  81:Drivers/GD32_F470_STD_Driver/Source/gd32f4xx_usart.c ****         break;
  82:Drivers/GD32_F470_STD_Driver/Source/gd32f4xx_usart.c ****     case UART7:
  83:Drivers/GD32_F470_STD_Driver/Source/gd32f4xx_usart.c ****         rcu_periph_reset_enable(RCU_UART7RST);
 112              		.loc 1 83 9 is_stmt 1 view .LVU18
 113 0076 40F61F00 		movw	r0, #2079
 114              	.LVL13:
 115              		.loc 1 83 9 is_stmt 0 view .LVU19
 116 007a FFF7FEFF 		bl	rcu_periph_reset_enable
 117              	.LVL14:
  84:Drivers/GD32_F470_STD_Driver/Source/gd32f4xx_usart.c ****         rcu_periph_reset_disable(RCU_UART7RST);
 118              		.loc 1 84 9 is_stmt 1 view .LVU20
 119 007e 40F61F00 		movw	r0, #2079
 120 0082 FFF7FEFF 		bl	rcu_periph_reset_disable
 121              	.LVL15:
  85:Drivers/GD32_F470_STD_Driver/Source/gd32f4xx_usart.c ****         break;
 122              		.loc 1 85 9 view .LVU21
  86:Drivers/GD32_F470_STD_Driver/Source/gd32f4xx_usart.c ****     default:
  87:Drivers/GD32_F470_STD_Driver/Source/gd32f4xx_usart.c ****         break;
  88:Drivers/GD32_F470_STD_Driver/Source/gd32f4xx_usart.c ****     }
  89:Drivers/GD32_F470_STD_Driver/Source/gd32f4xx_usart.c **** }
 123              		.loc 1 89 1 is_stmt 0 view .LVU22
 124 0086 07E0     		b	.L1
 125              	.LVL16:
 126              	.L10:
  55:Drivers/GD32_F470_STD_Driver/Source/gd32f4xx_usart.c ****         rcu_periph_reset_disable(RCU_USART0RST);
 127              		.loc 1 55 9 is_stmt 1 view .LVU23
 128 0088 40F60410 		movw	r0, #2308
ARM GAS  /tmp/ccLXJ74X.s 			page 5


 129              	.LVL17:
  55:Drivers/GD32_F470_STD_Driver/Source/gd32f4xx_usart.c ****         rcu_periph_reset_disable(RCU_USART0RST);
 130              		.loc 1 55 9 is_stmt 0 view .LVU24
 131 008c FFF7FEFF 		bl	rcu_periph_reset_enable
 132              	.LVL18:
  56:Drivers/GD32_F470_STD_Driver/Source/gd32f4xx_usart.c ****         break;
 133              		.loc 1 56 9 is_stmt 1 view .LVU25
 134 0090 40F60410 		movw	r0, #2308
 135 0094 FFF7FEFF 		bl	rcu_periph_reset_disable
 136              	.LVL19:
  57:Drivers/GD32_F470_STD_Driver/Source/gd32f4xx_usart.c ****     case USART1:
 137              		.loc 1 57 9 view .LVU26
 138              	.L1:
 139              		.loc 1 89 1 is_stmt 0 view .LVU27
 140 0098 08BD     		pop	{r3, pc}
 141              	.LVL20:
 142              	.L6:
  59:Drivers/GD32_F470_STD_Driver/Source/gd32f4xx_usart.c ****         rcu_periph_reset_disable(RCU_USART1RST);
 143              		.loc 1 59 9 is_stmt 1 view .LVU28
 144 009a 40F61100 		movw	r0, #2065
 145              	.LVL21:
  59:Drivers/GD32_F470_STD_Driver/Source/gd32f4xx_usart.c ****         rcu_periph_reset_disable(RCU_USART1RST);
 146              		.loc 1 59 9 is_stmt 0 view .LVU29
 147 009e FFF7FEFF 		bl	rcu_periph_reset_enable
 148              	.LVL22:
  60:Drivers/GD32_F470_STD_Driver/Source/gd32f4xx_usart.c ****         break;
 149              		.loc 1 60 9 is_stmt 1 view .LVU30
 150 00a2 40F61100 		movw	r0, #2065
 151 00a6 FFF7FEFF 		bl	rcu_periph_reset_disable
 152              	.LVL23:
  61:Drivers/GD32_F470_STD_Driver/Source/gd32f4xx_usart.c ****     case USART2:
 153              		.loc 1 61 9 view .LVU31
 154 00aa F5E7     		b	.L1
 155              	.LVL24:
 156              	.L4:
  71:Drivers/GD32_F470_STD_Driver/Source/gd32f4xx_usart.c ****         rcu_periph_reset_disable(RCU_UART3RST);
 157              		.loc 1 71 9 view .LVU32
 158 00ac 40F61300 		movw	r0, #2067
 159              	.LVL25:
  71:Drivers/GD32_F470_STD_Driver/Source/gd32f4xx_usart.c ****         rcu_periph_reset_disable(RCU_UART3RST);
 160              		.loc 1 71 9 is_stmt 0 view .LVU33
 161 00b0 FFF7FEFF 		bl	rcu_periph_reset_enable
 162              	.LVL26:
  72:Drivers/GD32_F470_STD_Driver/Source/gd32f4xx_usart.c ****         break;
 163              		.loc 1 72 9 is_stmt 1 view .LVU34
 164 00b4 40F61300 		movw	r0, #2067
 165 00b8 FFF7FEFF 		bl	rcu_periph_reset_disable
 166              	.LVL27:
  73:Drivers/GD32_F470_STD_Driver/Source/gd32f4xx_usart.c ****     case UART4:
 167              		.loc 1 73 9 view .LVU35
 168 00bc ECE7     		b	.L1
 169              	.LVL28:
 170              	.L2:
  79:Drivers/GD32_F470_STD_Driver/Source/gd32f4xx_usart.c ****         rcu_periph_reset_disable(RCU_UART6RST);
 171              		.loc 1 79 9 view .LVU36
 172 00be 40F61E00 		movw	r0, #2078
 173              	.LVL29:
ARM GAS  /tmp/ccLXJ74X.s 			page 6


  79:Drivers/GD32_F470_STD_Driver/Source/gd32f4xx_usart.c ****         rcu_periph_reset_disable(RCU_UART6RST);
 174              		.loc 1 79 9 is_stmt 0 view .LVU37
 175 00c2 FFF7FEFF 		bl	rcu_periph_reset_enable
 176              	.LVL30:
  80:Drivers/GD32_F470_STD_Driver/Source/gd32f4xx_usart.c ****         break;
 177              		.loc 1 80 9 is_stmt 1 view .LVU38
 178 00c6 40F61E00 		movw	r0, #2078
 179 00ca FFF7FEFF 		bl	rcu_periph_reset_disable
 180              	.LVL31:
  81:Drivers/GD32_F470_STD_Driver/Source/gd32f4xx_usart.c ****     case UART7:
 181              		.loc 1 81 9 view .LVU39
 182 00ce E3E7     		b	.L1
 183              	.L17:
 184              		.align	2
 185              	.L16:
 186 00d0 00780040 		.word	1073772544
 187 00d4 00500040 		.word	1073762304
 188 00d8 00100140 		.word	1073811456
 189              		.cfi_endproc
 190              	.LFE116:
 192              		.section	.text.usart_baudrate_set,"ax",%progbits
 193              		.align	1
 194              		.global	usart_baudrate_set
 195              		.syntax unified
 196              		.thumb
 197              		.thumb_func
 199              	usart_baudrate_set:
 200              	.LVL32:
 201              	.LFB117:
  90:Drivers/GD32_F470_STD_Driver/Source/gd32f4xx_usart.c **** 
  91:Drivers/GD32_F470_STD_Driver/Source/gd32f4xx_usart.c **** /*!
  92:Drivers/GD32_F470_STD_Driver/Source/gd32f4xx_usart.c ****     \brief    configure USART baud rate value
  93:Drivers/GD32_F470_STD_Driver/Source/gd32f4xx_usart.c ****     \param[in]  usart_periph: USARTx(x=0,1,2,5)/UARTx(x=3,4,6,7)
  94:Drivers/GD32_F470_STD_Driver/Source/gd32f4xx_usart.c ****     \param[in]  baudval: baud rate value
  95:Drivers/GD32_F470_STD_Driver/Source/gd32f4xx_usart.c ****     \param[out] none
  96:Drivers/GD32_F470_STD_Driver/Source/gd32f4xx_usart.c ****     \retval     none
  97:Drivers/GD32_F470_STD_Driver/Source/gd32f4xx_usart.c **** */
  98:Drivers/GD32_F470_STD_Driver/Source/gd32f4xx_usart.c **** void usart_baudrate_set(uint32_t usart_periph, uint32_t baudval)
  99:Drivers/GD32_F470_STD_Driver/Source/gd32f4xx_usart.c **** {
 202              		.loc 1 99 1 view -0
 203              		.cfi_startproc
 204              		@ args = 0, pretend = 0, frame = 0
 205              		@ frame_needed = 0, uses_anonymous_args = 0
 206              		.loc 1 99 1 is_stmt 0 view .LVU41
 207 0000 38B5     		push	{r3, r4, r5, lr}
 208              	.LCFI1:
 209              		.cfi_def_cfa_offset 16
 210              		.cfi_offset 3, -16
 211              		.cfi_offset 4, -12
 212              		.cfi_offset 5, -8
 213              		.cfi_offset 14, -4
 214 0002 0446     		mov	r4, r0
 215 0004 0D46     		mov	r5, r1
 100:Drivers/GD32_F470_STD_Driver/Source/gd32f4xx_usart.c ****     uint32_t uclk = 0U, intdiv = 0U, fradiv = 0U, udiv = 0U;
 216              		.loc 1 100 5 is_stmt 1 view .LVU42
 217              	.LVL33:
 101:Drivers/GD32_F470_STD_Driver/Source/gd32f4xx_usart.c ****     switch(usart_periph) {
ARM GAS  /tmp/ccLXJ74X.s 			page 7


 218              		.loc 1 101 5 view .LVU43
 219 0006 2E4B     		ldr	r3, .L38
 220 0008 9842     		cmp	r0, r3
 221 000a 4DD0     		beq	.L19
 222 000c 2BD8     		bhi	.L20
 223 000e A3F53053 		sub	r3, r3, #11264
 224 0012 9842     		cmp	r0, r3
 225 0014 44D0     		beq	.L21
 226 0016 06D9     		bls	.L33
 227 0018 2A4B     		ldr	r3, .L38+4
 228 001a 9842     		cmp	r0, r3
 229 001c 11D1     		bne	.L34
 102:Drivers/GD32_F470_STD_Driver/Source/gd32f4xx_usart.c ****     /* get clock frequency */
 103:Drivers/GD32_F470_STD_Driver/Source/gd32f4xx_usart.c ****     case USART0:
 104:Drivers/GD32_F470_STD_Driver/Source/gd32f4xx_usart.c ****         uclk = rcu_clock_freq_get(CK_APB2);
 105:Drivers/GD32_F470_STD_Driver/Source/gd32f4xx_usart.c ****         break;
 106:Drivers/GD32_F470_STD_Driver/Source/gd32f4xx_usart.c ****     case USART5:
 107:Drivers/GD32_F470_STD_Driver/Source/gd32f4xx_usart.c ****         uclk = rcu_clock_freq_get(CK_APB2);
 108:Drivers/GD32_F470_STD_Driver/Source/gd32f4xx_usart.c ****         break;
 109:Drivers/GD32_F470_STD_Driver/Source/gd32f4xx_usart.c ****     case USART1:
 110:Drivers/GD32_F470_STD_Driver/Source/gd32f4xx_usart.c ****         uclk = rcu_clock_freq_get(CK_APB1);
 111:Drivers/GD32_F470_STD_Driver/Source/gd32f4xx_usart.c ****         break;
 112:Drivers/GD32_F470_STD_Driver/Source/gd32f4xx_usart.c ****     case USART2:
 113:Drivers/GD32_F470_STD_Driver/Source/gd32f4xx_usart.c ****         uclk = rcu_clock_freq_get(CK_APB1);
 114:Drivers/GD32_F470_STD_Driver/Source/gd32f4xx_usart.c ****         break;
 115:Drivers/GD32_F470_STD_Driver/Source/gd32f4xx_usart.c ****     case UART3:
 116:Drivers/GD32_F470_STD_Driver/Source/gd32f4xx_usart.c ****         uclk = rcu_clock_freq_get(CK_APB1);
 117:Drivers/GD32_F470_STD_Driver/Source/gd32f4xx_usart.c ****         break;
 118:Drivers/GD32_F470_STD_Driver/Source/gd32f4xx_usart.c ****     case UART4:
 119:Drivers/GD32_F470_STD_Driver/Source/gd32f4xx_usart.c ****         uclk = rcu_clock_freq_get(CK_APB1);
 230              		.loc 1 119 9 view .LVU44
 231              		.loc 1 119 16 is_stmt 0 view .LVU45
 232 001e 0220     		movs	r0, #2
 233              	.LVL34:
 234              		.loc 1 119 16 view .LVU46
 235 0020 FFF7FEFF 		bl	rcu_clock_freq_get
 236              	.LVL35:
 120:Drivers/GD32_F470_STD_Driver/Source/gd32f4xx_usart.c ****         break;
 237              		.loc 1 120 9 is_stmt 1 view .LVU47
 238 0024 0EE0     		b	.L25
 239              	.LVL36:
 240              	.L33:
 101:Drivers/GD32_F470_STD_Driver/Source/gd32f4xx_usart.c ****     switch(usart_periph) {
 241              		.loc 1 101 5 is_stmt 0 view .LVU48
 242 0026 A3F50063 		sub	r3, r3, #2048
 243 002a 9842     		cmp	r0, r3
 244 002c 34D0     		beq	.L23
 245 002e 03F58063 		add	r3, r3, #1024
 246 0032 9842     		cmp	r0, r3
 247 0034 03D1     		bne	.L35
 113:Drivers/GD32_F470_STD_Driver/Source/gd32f4xx_usart.c ****         break;
 248              		.loc 1 113 9 is_stmt 1 view .LVU49
 113:Drivers/GD32_F470_STD_Driver/Source/gd32f4xx_usart.c ****         break;
 249              		.loc 1 113 16 is_stmt 0 view .LVU50
 250 0036 0220     		movs	r0, #2
 251              	.LVL37:
 113:Drivers/GD32_F470_STD_Driver/Source/gd32f4xx_usart.c ****         break;
ARM GAS  /tmp/ccLXJ74X.s 			page 8


 252              		.loc 1 113 16 view .LVU51
 253 0038 FFF7FEFF 		bl	rcu_clock_freq_get
 254              	.LVL38:
 114:Drivers/GD32_F470_STD_Driver/Source/gd32f4xx_usart.c ****     case UART3:
 255              		.loc 1 114 9 is_stmt 1 view .LVU52
 256 003c 02E0     		b	.L25
 257              	.LVL39:
 258              	.L35:
 101:Drivers/GD32_F470_STD_Driver/Source/gd32f4xx_usart.c ****     /* get clock frequency */
 259              		.loc 1 101 5 is_stmt 0 view .LVU53
 260 003e 0020     		movs	r0, #0
 261              	.LVL40:
 101:Drivers/GD32_F470_STD_Driver/Source/gd32f4xx_usart.c ****     /* get clock frequency */
 262              		.loc 1 101 5 view .LVU54
 263 0040 00E0     		b	.L25
 264              	.LVL41:
 265              	.L34:
 101:Drivers/GD32_F470_STD_Driver/Source/gd32f4xx_usart.c ****     /* get clock frequency */
 266              		.loc 1 101 5 view .LVU55
 267 0042 0020     		movs	r0, #0
 268              	.LVL42:
 269              	.L25:
 121:Drivers/GD32_F470_STD_Driver/Source/gd32f4xx_usart.c ****     case UART6:
 122:Drivers/GD32_F470_STD_Driver/Source/gd32f4xx_usart.c ****         uclk = rcu_clock_freq_get(CK_APB1);
 123:Drivers/GD32_F470_STD_Driver/Source/gd32f4xx_usart.c ****         break;
 124:Drivers/GD32_F470_STD_Driver/Source/gd32f4xx_usart.c ****     case UART7:
 125:Drivers/GD32_F470_STD_Driver/Source/gd32f4xx_usart.c ****         uclk = rcu_clock_freq_get(CK_APB1);
 126:Drivers/GD32_F470_STD_Driver/Source/gd32f4xx_usart.c ****         break;
 127:Drivers/GD32_F470_STD_Driver/Source/gd32f4xx_usart.c ****     default:
 128:Drivers/GD32_F470_STD_Driver/Source/gd32f4xx_usart.c ****         break;
 129:Drivers/GD32_F470_STD_Driver/Source/gd32f4xx_usart.c ****     }
 130:Drivers/GD32_F470_STD_Driver/Source/gd32f4xx_usart.c ****     if(USART_CTL0(usart_periph) & USART_CTL0_OVSMOD) {
 270              		.loc 1 130 5 is_stmt 1 view .LVU56
 271              		.loc 1 130 8 is_stmt 0 view .LVU57
 272 0044 E368     		ldr	r3, [r4, #12]
 273              		.loc 1 130 7 view .LVU58
 274 0046 13F4004F 		tst	r3, #32768
 275 004a 31D0     		beq	.L30
 131:Drivers/GD32_F470_STD_Driver/Source/gd32f4xx_usart.c ****         /* when oversampling by 8, configure the value of USART_BAUD */
 132:Drivers/GD32_F470_STD_Driver/Source/gd32f4xx_usart.c ****         udiv = ((2U * uclk) + baudval / 2U) / baudval;
 276              		.loc 1 132 9 is_stmt 1 view .LVU59
 277              		.loc 1 132 39 is_stmt 0 view .LVU60
 278 004c 6908     		lsrs	r1, r5, #1
 279              		.loc 1 132 29 view .LVU61
 280 004e 01EB4000 		add	r0, r1, r0, lsl #1
 281              	.LVL43:
 282              		.loc 1 132 14 view .LVU62
 283 0052 B0FBF5F0 		udiv	r0, r0, r5
 284              	.LVL44:
 133:Drivers/GD32_F470_STD_Driver/Source/gd32f4xx_usart.c ****         intdiv = udiv & 0xfff0U;
 285              		.loc 1 133 9 is_stmt 1 view .LVU63
 286              		.loc 1 133 16 is_stmt 0 view .LVU64
 287 0056 4FF6F075 		movw	r5, #65520
 288              	.LVL45:
 289              		.loc 1 133 16 view .LVU65
 290 005a 0540     		ands	r5, r5, r0
 291              	.LVL46:
ARM GAS  /tmp/ccLXJ74X.s 			page 9


 134:Drivers/GD32_F470_STD_Driver/Source/gd32f4xx_usart.c ****         fradiv = (udiv >> 1U) & 0x7U;
 292              		.loc 1 134 9 is_stmt 1 view .LVU66
 293              		.loc 1 134 16 is_stmt 0 view .LVU67
 294 005c C0F34200 		ubfx	r0, r0, #1, #3
 295              	.LVL47:
 135:Drivers/GD32_F470_STD_Driver/Source/gd32f4xx_usart.c ****         USART_BAUD(usart_periph) = ((USART_BAUD_FRADIV | USART_BAUD_INTDIV) & (intdiv | fradiv));
 296              		.loc 1 135 9 is_stmt 1 view .LVU68
 297              		.loc 1 135 77 is_stmt 0 view .LVU69
 298 0060 2843     		orrs	r0, r0, r5
 299              	.LVL48:
 300              		.loc 1 135 34 view .LVU70
 301 0062 A060     		str	r0, [r4, #8]
 302              	.LVL49:
 303              	.L18:
 136:Drivers/GD32_F470_STD_Driver/Source/gd32f4xx_usart.c ****     } else {
 137:Drivers/GD32_F470_STD_Driver/Source/gd32f4xx_usart.c ****         /* when oversampling by 16, configure the value of USART_BAUD */
 138:Drivers/GD32_F470_STD_Driver/Source/gd32f4xx_usart.c ****         udiv = (uclk + baudval / 2U) / baudval;
 139:Drivers/GD32_F470_STD_Driver/Source/gd32f4xx_usart.c ****         intdiv = udiv & 0xfff0U;
 140:Drivers/GD32_F470_STD_Driver/Source/gd32f4xx_usart.c ****         fradiv = udiv & 0xfU;
 141:Drivers/GD32_F470_STD_Driver/Source/gd32f4xx_usart.c ****         USART_BAUD(usart_periph) = ((USART_BAUD_FRADIV | USART_BAUD_INTDIV) & (intdiv | fradiv));
 142:Drivers/GD32_F470_STD_Driver/Source/gd32f4xx_usart.c ****     }
 143:Drivers/GD32_F470_STD_Driver/Source/gd32f4xx_usart.c **** }
 304              		.loc 1 143 1 view .LVU71
 305 0064 38BD     		pop	{r3, r4, r5, pc}
 306              	.LVL50:
 307              	.L20:
 101:Drivers/GD32_F470_STD_Driver/Source/gd32f4xx_usart.c ****     /* get clock frequency */
 308              		.loc 1 101 5 view .LVU72
 309 0066 184B     		ldr	r3, .L38+8
 310 0068 9842     		cmp	r0, r3
 311 006a 11D0     		beq	.L27
 312 006c 03F58063 		add	r3, r3, #1024
 313 0070 9842     		cmp	r0, r3
 314 0072 03D1     		bne	.L36
 107:Drivers/GD32_F470_STD_Driver/Source/gd32f4xx_usart.c ****         break;
 315              		.loc 1 107 9 is_stmt 1 view .LVU73
 107:Drivers/GD32_F470_STD_Driver/Source/gd32f4xx_usart.c ****         break;
 316              		.loc 1 107 16 is_stmt 0 view .LVU74
 317 0074 0320     		movs	r0, #3
 318              	.LVL51:
 107:Drivers/GD32_F470_STD_Driver/Source/gd32f4xx_usart.c ****         break;
 319              		.loc 1 107 16 view .LVU75
 320 0076 FFF7FEFF 		bl	rcu_clock_freq_get
 321              	.LVL52:
 108:Drivers/GD32_F470_STD_Driver/Source/gd32f4xx_usart.c ****     case USART1:
 322              		.loc 1 108 9 is_stmt 1 view .LVU76
 323 007a E3E7     		b	.L25
 324              	.LVL53:
 325              	.L36:
 101:Drivers/GD32_F470_STD_Driver/Source/gd32f4xx_usart.c ****     /* get clock frequency */
 326              		.loc 1 101 5 is_stmt 0 view .LVU77
 327 007c A3F51843 		sub	r3, r3, #38912
 328 0080 9842     		cmp	r0, r3
 329 0082 03D1     		bne	.L37
 125:Drivers/GD32_F470_STD_Driver/Source/gd32f4xx_usart.c ****         break;
 330              		.loc 1 125 9 is_stmt 1 view .LVU78
 125:Drivers/GD32_F470_STD_Driver/Source/gd32f4xx_usart.c ****         break;
ARM GAS  /tmp/ccLXJ74X.s 			page 10


 331              		.loc 1 125 16 is_stmt 0 view .LVU79
 332 0084 0220     		movs	r0, #2
 333              	.LVL54:
 125:Drivers/GD32_F470_STD_Driver/Source/gd32f4xx_usart.c ****         break;
 334              		.loc 1 125 16 view .LVU80
 335 0086 FFF7FEFF 		bl	rcu_clock_freq_get
 336              	.LVL55:
 126:Drivers/GD32_F470_STD_Driver/Source/gd32f4xx_usart.c ****     default:
 337              		.loc 1 126 9 is_stmt 1 view .LVU81
 338 008a DBE7     		b	.L25
 339              	.LVL56:
 340              	.L37:
 101:Drivers/GD32_F470_STD_Driver/Source/gd32f4xx_usart.c ****     /* get clock frequency */
 341              		.loc 1 101 5 is_stmt 0 view .LVU82
 342 008c 0020     		movs	r0, #0
 343              	.LVL57:
 101:Drivers/GD32_F470_STD_Driver/Source/gd32f4xx_usart.c ****     /* get clock frequency */
 344              		.loc 1 101 5 view .LVU83
 345 008e D9E7     		b	.L25
 346              	.LVL58:
 347              	.L27:
 104:Drivers/GD32_F470_STD_Driver/Source/gd32f4xx_usart.c ****         break;
 348              		.loc 1 104 9 is_stmt 1 view .LVU84
 104:Drivers/GD32_F470_STD_Driver/Source/gd32f4xx_usart.c ****         break;
 349              		.loc 1 104 16 is_stmt 0 view .LVU85
 350 0090 0320     		movs	r0, #3
 351              	.LVL59:
 104:Drivers/GD32_F470_STD_Driver/Source/gd32f4xx_usart.c ****         break;
 352              		.loc 1 104 16 view .LVU86
 353 0092 FFF7FEFF 		bl	rcu_clock_freq_get
 354              	.LVL60:
 105:Drivers/GD32_F470_STD_Driver/Source/gd32f4xx_usart.c ****     case USART5:
 355              		.loc 1 105 9 is_stmt 1 view .LVU87
 356 0096 D5E7     		b	.L25
 357              	.LVL61:
 358              	.L23:
 110:Drivers/GD32_F470_STD_Driver/Source/gd32f4xx_usart.c ****         break;
 359              		.loc 1 110 9 view .LVU88
 110:Drivers/GD32_F470_STD_Driver/Source/gd32f4xx_usart.c ****         break;
 360              		.loc 1 110 16 is_stmt 0 view .LVU89
 361 0098 0220     		movs	r0, #2
 362              	.LVL62:
 110:Drivers/GD32_F470_STD_Driver/Source/gd32f4xx_usart.c ****         break;
 363              		.loc 1 110 16 view .LVU90
 364 009a FFF7FEFF 		bl	rcu_clock_freq_get
 365              	.LVL63:
 111:Drivers/GD32_F470_STD_Driver/Source/gd32f4xx_usart.c ****     case USART2:
 366              		.loc 1 111 9 is_stmt 1 view .LVU91
 367 009e D1E7     		b	.L25
 368              	.LVL64:
 369              	.L21:
 116:Drivers/GD32_F470_STD_Driver/Source/gd32f4xx_usart.c ****         break;
 370              		.loc 1 116 9 view .LVU92
 116:Drivers/GD32_F470_STD_Driver/Source/gd32f4xx_usart.c ****         break;
 371              		.loc 1 116 16 is_stmt 0 view .LVU93
 372 00a0 0220     		movs	r0, #2
 373              	.LVL65:
ARM GAS  /tmp/ccLXJ74X.s 			page 11


 116:Drivers/GD32_F470_STD_Driver/Source/gd32f4xx_usart.c ****         break;
 374              		.loc 1 116 16 view .LVU94
 375 00a2 FFF7FEFF 		bl	rcu_clock_freq_get
 376              	.LVL66:
 117:Drivers/GD32_F470_STD_Driver/Source/gd32f4xx_usart.c ****     case UART4:
 377              		.loc 1 117 9 is_stmt 1 view .LVU95
 378 00a6 CDE7     		b	.L25
 379              	.LVL67:
 380              	.L19:
 122:Drivers/GD32_F470_STD_Driver/Source/gd32f4xx_usart.c ****         break;
 381              		.loc 1 122 9 view .LVU96
 122:Drivers/GD32_F470_STD_Driver/Source/gd32f4xx_usart.c ****         break;
 382              		.loc 1 122 16 is_stmt 0 view .LVU97
 383 00a8 0220     		movs	r0, #2
 384              	.LVL68:
 122:Drivers/GD32_F470_STD_Driver/Source/gd32f4xx_usart.c ****         break;
 385              		.loc 1 122 16 view .LVU98
 386 00aa FFF7FEFF 		bl	rcu_clock_freq_get
 387              	.LVL69:
 123:Drivers/GD32_F470_STD_Driver/Source/gd32f4xx_usart.c ****     case UART7:
 388              		.loc 1 123 9 is_stmt 1 view .LVU99
 389 00ae C9E7     		b	.L25
 390              	.L30:
 138:Drivers/GD32_F470_STD_Driver/Source/gd32f4xx_usart.c ****         intdiv = udiv & 0xfff0U;
 391              		.loc 1 138 9 view .LVU100
 138:Drivers/GD32_F470_STD_Driver/Source/gd32f4xx_usart.c ****         intdiv = udiv & 0xfff0U;
 392              		.loc 1 138 22 is_stmt 0 view .LVU101
 393 00b0 00EB5500 		add	r0, r0, r5, lsr #1
 394              	.LVL70:
 138:Drivers/GD32_F470_STD_Driver/Source/gd32f4xx_usart.c ****         intdiv = udiv & 0xfff0U;
 395              		.loc 1 138 14 view .LVU102
 396 00b4 B0FBF5F0 		udiv	r0, r0, r5
 397              	.LVL71:
 139:Drivers/GD32_F470_STD_Driver/Source/gd32f4xx_usart.c ****         fradiv = udiv & 0xfU;
 398              		.loc 1 139 9 is_stmt 1 view .LVU103
 140:Drivers/GD32_F470_STD_Driver/Source/gd32f4xx_usart.c ****         USART_BAUD(usart_periph) = ((USART_BAUD_FRADIV | USART_BAUD_INTDIV) & (intdiv | fradiv));
 399              		.loc 1 140 9 view .LVU104
 141:Drivers/GD32_F470_STD_Driver/Source/gd32f4xx_usart.c ****     }
 400              		.loc 1 141 9 view .LVU105
 141:Drivers/GD32_F470_STD_Driver/Source/gd32f4xx_usart.c ****     }
 401              		.loc 1 141 87 is_stmt 0 view .LVU106
 402 00b8 80B2     		uxth	r0, r0
 403              	.LVL72:
 141:Drivers/GD32_F470_STD_Driver/Source/gd32f4xx_usart.c ****     }
 404              		.loc 1 141 34 view .LVU107
 405 00ba A060     		str	r0, [r4, #8]
 406              		.loc 1 143 1 view .LVU108
 407 00bc D2E7     		b	.L18
 408              	.L39:
 409 00be 00BF     		.align	2
 410              	.L38:
 411 00c0 00780040 		.word	1073772544
 412 00c4 00500040 		.word	1073762304
 413 00c8 00100140 		.word	1073811456
 414              		.cfi_endproc
 415              	.LFE117:
 417              		.section	.text.usart_parity_config,"ax",%progbits
ARM GAS  /tmp/ccLXJ74X.s 			page 12


 418              		.align	1
 419              		.global	usart_parity_config
 420              		.syntax unified
 421              		.thumb
 422              		.thumb_func
 424              	usart_parity_config:
 425              	.LVL73:
 426              	.LFB118:
 144:Drivers/GD32_F470_STD_Driver/Source/gd32f4xx_usart.c **** 
 145:Drivers/GD32_F470_STD_Driver/Source/gd32f4xx_usart.c **** /*!
 146:Drivers/GD32_F470_STD_Driver/Source/gd32f4xx_usart.c ****     \brief   configure USART parity function
 147:Drivers/GD32_F470_STD_Driver/Source/gd32f4xx_usart.c ****     \param[in] usart_periph: USARTx(x=0,1,2,5)/UARTx(x=3,4,6,7)
 148:Drivers/GD32_F470_STD_Driver/Source/gd32f4xx_usart.c ****     \param[in] paritycfg: configure USART parity
 149:Drivers/GD32_F470_STD_Driver/Source/gd32f4xx_usart.c ****                only one parameter can be selected which is shown as below:
 150:Drivers/GD32_F470_STD_Driver/Source/gd32f4xx_usart.c ****       \arg       USART_PM_NONE: no parity
 151:Drivers/GD32_F470_STD_Driver/Source/gd32f4xx_usart.c ****       \arg       USART_PM_EVEN: even parity
 152:Drivers/GD32_F470_STD_Driver/Source/gd32f4xx_usart.c ****       \arg       USART_PM_ODD:  odd parity
 153:Drivers/GD32_F470_STD_Driver/Source/gd32f4xx_usart.c ****     \param[out] none
 154:Drivers/GD32_F470_STD_Driver/Source/gd32f4xx_usart.c ****     \retval     none
 155:Drivers/GD32_F470_STD_Driver/Source/gd32f4xx_usart.c **** */
 156:Drivers/GD32_F470_STD_Driver/Source/gd32f4xx_usart.c **** void usart_parity_config(uint32_t usart_periph, uint32_t paritycfg)
 157:Drivers/GD32_F470_STD_Driver/Source/gd32f4xx_usart.c **** {
 427              		.loc 1 157 1 is_stmt 1 view -0
 428              		.cfi_startproc
 429              		@ args = 0, pretend = 0, frame = 0
 430              		@ frame_needed = 0, uses_anonymous_args = 0
 431              		@ link register save eliminated.
 158:Drivers/GD32_F470_STD_Driver/Source/gd32f4xx_usart.c ****     /* clear USART_CTL0 PM,PCEN Bits */
 159:Drivers/GD32_F470_STD_Driver/Source/gd32f4xx_usart.c ****     USART_CTL0(usart_periph) &= ~(USART_CTL0_PM | USART_CTL0_PCEN);
 432              		.loc 1 159 5 view .LVU110
 433              		.loc 1 159 30 is_stmt 0 view .LVU111
 434 0000 C268     		ldr	r2, [r0, #12]
 435 0002 22F4C062 		bic	r2, r2, #1536
 436 0006 C260     		str	r2, [r0, #12]
 160:Drivers/GD32_F470_STD_Driver/Source/gd32f4xx_usart.c ****     /* configure USART parity mode */
 161:Drivers/GD32_F470_STD_Driver/Source/gd32f4xx_usart.c ****     USART_CTL0(usart_periph) |= paritycfg ;
 437              		.loc 1 161 5 is_stmt 1 view .LVU112
 438              		.loc 1 161 30 is_stmt 0 view .LVU113
 439 0008 C368     		ldr	r3, [r0, #12]
 440 000a 0B43     		orrs	r3, r3, r1
 441 000c C360     		str	r3, [r0, #12]
 162:Drivers/GD32_F470_STD_Driver/Source/gd32f4xx_usart.c **** }
 442              		.loc 1 162 1 view .LVU114
 443 000e 7047     		bx	lr
 444              		.cfi_endproc
 445              	.LFE118:
 447              		.section	.text.usart_word_length_set,"ax",%progbits
 448              		.align	1
 449              		.global	usart_word_length_set
 450              		.syntax unified
 451              		.thumb
 452              		.thumb_func
 454              	usart_word_length_set:
 455              	.LVL74:
 456              	.LFB119:
 163:Drivers/GD32_F470_STD_Driver/Source/gd32f4xx_usart.c **** 
 164:Drivers/GD32_F470_STD_Driver/Source/gd32f4xx_usart.c **** /*!
ARM GAS  /tmp/ccLXJ74X.s 			page 13


 165:Drivers/GD32_F470_STD_Driver/Source/gd32f4xx_usart.c ****     \brief   configure USART word length
 166:Drivers/GD32_F470_STD_Driver/Source/gd32f4xx_usart.c ****     \param[in] usart_periph: USARTx(x=0,1,2,5)/UARTx(x=3,4,6,7)
 167:Drivers/GD32_F470_STD_Driver/Source/gd32f4xx_usart.c ****     \param[in] wlen: USART word length configure
 168:Drivers/GD32_F470_STD_Driver/Source/gd32f4xx_usart.c ****                only one parameter can be selected which is shown as below:
 169:Drivers/GD32_F470_STD_Driver/Source/gd32f4xx_usart.c ****       \arg       USART_WL_8BIT: 8 bits
 170:Drivers/GD32_F470_STD_Driver/Source/gd32f4xx_usart.c ****       \arg       USART_WL_9BIT: 9 bits
 171:Drivers/GD32_F470_STD_Driver/Source/gd32f4xx_usart.c ****     \param[out] none
 172:Drivers/GD32_F470_STD_Driver/Source/gd32f4xx_usart.c ****     \retval     none
 173:Drivers/GD32_F470_STD_Driver/Source/gd32f4xx_usart.c **** */
 174:Drivers/GD32_F470_STD_Driver/Source/gd32f4xx_usart.c **** void usart_word_length_set(uint32_t usart_periph, uint32_t wlen)
 175:Drivers/GD32_F470_STD_Driver/Source/gd32f4xx_usart.c **** {
 457              		.loc 1 175 1 is_stmt 1 view -0
 458              		.cfi_startproc
 459              		@ args = 0, pretend = 0, frame = 0
 460              		@ frame_needed = 0, uses_anonymous_args = 0
 461              		@ link register save eliminated.
 176:Drivers/GD32_F470_STD_Driver/Source/gd32f4xx_usart.c ****     /* clear USART_CTL0 WL bit */
 177:Drivers/GD32_F470_STD_Driver/Source/gd32f4xx_usart.c ****     USART_CTL0(usart_periph) &= ~USART_CTL0_WL;
 462              		.loc 1 177 5 view .LVU116
 463              		.loc 1 177 30 is_stmt 0 view .LVU117
 464 0000 C268     		ldr	r2, [r0, #12]
 465 0002 22F48052 		bic	r2, r2, #4096
 466 0006 C260     		str	r2, [r0, #12]
 178:Drivers/GD32_F470_STD_Driver/Source/gd32f4xx_usart.c ****     /* configure USART word length */
 179:Drivers/GD32_F470_STD_Driver/Source/gd32f4xx_usart.c ****     USART_CTL0(usart_periph) |= wlen;
 467              		.loc 1 179 5 is_stmt 1 view .LVU118
 468              		.loc 1 179 30 is_stmt 0 view .LVU119
 469 0008 C368     		ldr	r3, [r0, #12]
 470 000a 0B43     		orrs	r3, r3, r1
 471 000c C360     		str	r3, [r0, #12]
 180:Drivers/GD32_F470_STD_Driver/Source/gd32f4xx_usart.c **** }
 472              		.loc 1 180 1 view .LVU120
 473 000e 7047     		bx	lr
 474              		.cfi_endproc
 475              	.LFE119:
 477              		.section	.text.usart_stop_bit_set,"ax",%progbits
 478              		.align	1
 479              		.global	usart_stop_bit_set
 480              		.syntax unified
 481              		.thumb
 482              		.thumb_func
 484              	usart_stop_bit_set:
 485              	.LVL75:
 486              	.LFB120:
 181:Drivers/GD32_F470_STD_Driver/Source/gd32f4xx_usart.c **** 
 182:Drivers/GD32_F470_STD_Driver/Source/gd32f4xx_usart.c **** /*!
 183:Drivers/GD32_F470_STD_Driver/Source/gd32f4xx_usart.c ****     \brief   configure USART stop bit length
 184:Drivers/GD32_F470_STD_Driver/Source/gd32f4xx_usart.c ****     \param[in] usart_periph: USARTx(x=0,1,2,5)/UARTx(x=3,4,6,7)
 185:Drivers/GD32_F470_STD_Driver/Source/gd32f4xx_usart.c ****     \param[in] stblen: USART stop bit configure
 186:Drivers/GD32_F470_STD_Driver/Source/gd32f4xx_usart.c ****                only one parameter can be selected which is shown as below:
 187:Drivers/GD32_F470_STD_Driver/Source/gd32f4xx_usart.c ****       \arg       USART_STB_1BIT:   1 bit
 188:Drivers/GD32_F470_STD_Driver/Source/gd32f4xx_usart.c ****       \arg       USART_STB_0_5BIT: 0.5 bit(not available for UARTx(x=3,4,6,7))
 189:Drivers/GD32_F470_STD_Driver/Source/gd32f4xx_usart.c ****       \arg       USART_STB_2BIT:   2 bits
 190:Drivers/GD32_F470_STD_Driver/Source/gd32f4xx_usart.c ****       \arg       USART_STB_1_5BIT: 1.5 bits(not available for UARTx(x=3,4,6,7))
 191:Drivers/GD32_F470_STD_Driver/Source/gd32f4xx_usart.c ****     \param[out] none
 192:Drivers/GD32_F470_STD_Driver/Source/gd32f4xx_usart.c ****     \retval     none
 193:Drivers/GD32_F470_STD_Driver/Source/gd32f4xx_usart.c **** */
ARM GAS  /tmp/ccLXJ74X.s 			page 14


 194:Drivers/GD32_F470_STD_Driver/Source/gd32f4xx_usart.c **** void usart_stop_bit_set(uint32_t usart_periph, uint32_t stblen)
 195:Drivers/GD32_F470_STD_Driver/Source/gd32f4xx_usart.c **** {
 487              		.loc 1 195 1 is_stmt 1 view -0
 488              		.cfi_startproc
 489              		@ args = 0, pretend = 0, frame = 0
 490              		@ frame_needed = 0, uses_anonymous_args = 0
 491              		@ link register save eliminated.
 196:Drivers/GD32_F470_STD_Driver/Source/gd32f4xx_usart.c ****     /* clear USART_CTL1 STB bits */
 197:Drivers/GD32_F470_STD_Driver/Source/gd32f4xx_usart.c ****     USART_CTL1(usart_periph) &= ~USART_CTL1_STB;
 492              		.loc 1 197 5 view .LVU122
 493              		.loc 1 197 30 is_stmt 0 view .LVU123
 494 0000 0269     		ldr	r2, [r0, #16]
 495 0002 22F44052 		bic	r2, r2, #12288
 496 0006 0261     		str	r2, [r0, #16]
 198:Drivers/GD32_F470_STD_Driver/Source/gd32f4xx_usart.c ****     /* configure USART stop bits */
 199:Drivers/GD32_F470_STD_Driver/Source/gd32f4xx_usart.c ****     USART_CTL1(usart_periph) |= stblen;
 497              		.loc 1 199 5 is_stmt 1 view .LVU124
 498              		.loc 1 199 30 is_stmt 0 view .LVU125
 499 0008 0369     		ldr	r3, [r0, #16]
 500 000a 0B43     		orrs	r3, r3, r1
 501 000c 0361     		str	r3, [r0, #16]
 200:Drivers/GD32_F470_STD_Driver/Source/gd32f4xx_usart.c **** }
 502              		.loc 1 200 1 view .LVU126
 503 000e 7047     		bx	lr
 504              		.cfi_endproc
 505              	.LFE120:
 507              		.section	.text.usart_enable,"ax",%progbits
 508              		.align	1
 509              		.global	usart_enable
 510              		.syntax unified
 511              		.thumb
 512              		.thumb_func
 514              	usart_enable:
 515              	.LVL76:
 516              	.LFB121:
 201:Drivers/GD32_F470_STD_Driver/Source/gd32f4xx_usart.c **** /*!
 202:Drivers/GD32_F470_STD_Driver/Source/gd32f4xx_usart.c ****     \brief    enable USART
 203:Drivers/GD32_F470_STD_Driver/Source/gd32f4xx_usart.c ****     \param[in]  usart_periph: USARTx(x=0,1,2,5)/UARTx(x=3,4,6,7)
 204:Drivers/GD32_F470_STD_Driver/Source/gd32f4xx_usart.c ****     \param[out] none
 205:Drivers/GD32_F470_STD_Driver/Source/gd32f4xx_usart.c ****     \retval     none
 206:Drivers/GD32_F470_STD_Driver/Source/gd32f4xx_usart.c **** */
 207:Drivers/GD32_F470_STD_Driver/Source/gd32f4xx_usart.c **** void usart_enable(uint32_t usart_periph)
 208:Drivers/GD32_F470_STD_Driver/Source/gd32f4xx_usart.c **** {
 517              		.loc 1 208 1 is_stmt 1 view -0
 518              		.cfi_startproc
 519              		@ args = 0, pretend = 0, frame = 0
 520              		@ frame_needed = 0, uses_anonymous_args = 0
 521              		@ link register save eliminated.
 209:Drivers/GD32_F470_STD_Driver/Source/gd32f4xx_usart.c ****     USART_CTL0(usart_periph) |= USART_CTL0_UEN;
 522              		.loc 1 209 5 view .LVU128
 523              		.loc 1 209 30 is_stmt 0 view .LVU129
 524 0000 C368     		ldr	r3, [r0, #12]
 525 0002 43F40053 		orr	r3, r3, #8192
 526 0006 C360     		str	r3, [r0, #12]
 210:Drivers/GD32_F470_STD_Driver/Source/gd32f4xx_usart.c **** }
 527              		.loc 1 210 1 view .LVU130
 528 0008 7047     		bx	lr
ARM GAS  /tmp/ccLXJ74X.s 			page 15


 529              		.cfi_endproc
 530              	.LFE121:
 532              		.section	.text.usart_disable,"ax",%progbits
 533              		.align	1
 534              		.global	usart_disable
 535              		.syntax unified
 536              		.thumb
 537              		.thumb_func
 539              	usart_disable:
 540              	.LVL77:
 541              	.LFB122:
 211:Drivers/GD32_F470_STD_Driver/Source/gd32f4xx_usart.c **** 
 212:Drivers/GD32_F470_STD_Driver/Source/gd32f4xx_usart.c **** /*!
 213:Drivers/GD32_F470_STD_Driver/Source/gd32f4xx_usart.c ****     \brief   disable USART
 214:Drivers/GD32_F470_STD_Driver/Source/gd32f4xx_usart.c ****     \param[in] usart_periph: USARTx(x=0,1,2,5)/UARTx(x=3,4,6,7)
 215:Drivers/GD32_F470_STD_Driver/Source/gd32f4xx_usart.c ****     \param[out] none
 216:Drivers/GD32_F470_STD_Driver/Source/gd32f4xx_usart.c ****     \retval     none
 217:Drivers/GD32_F470_STD_Driver/Source/gd32f4xx_usart.c **** */
 218:Drivers/GD32_F470_STD_Driver/Source/gd32f4xx_usart.c **** void usart_disable(uint32_t usart_periph)
 219:Drivers/GD32_F470_STD_Driver/Source/gd32f4xx_usart.c **** {
 542              		.loc 1 219 1 is_stmt 1 view -0
 543              		.cfi_startproc
 544              		@ args = 0, pretend = 0, frame = 0
 545              		@ frame_needed = 0, uses_anonymous_args = 0
 546              		@ link register save eliminated.
 220:Drivers/GD32_F470_STD_Driver/Source/gd32f4xx_usart.c ****     USART_CTL0(usart_periph) &= ~(USART_CTL0_UEN);
 547              		.loc 1 220 5 view .LVU132
 548              		.loc 1 220 30 is_stmt 0 view .LVU133
 549 0000 C368     		ldr	r3, [r0, #12]
 550 0002 23F40053 		bic	r3, r3, #8192
 551 0006 C360     		str	r3, [r0, #12]
 221:Drivers/GD32_F470_STD_Driver/Source/gd32f4xx_usart.c **** }
 552              		.loc 1 221 1 view .LVU134
 553 0008 7047     		bx	lr
 554              		.cfi_endproc
 555              	.LFE122:
 557              		.section	.text.usart_transmit_config,"ax",%progbits
 558              		.align	1
 559              		.global	usart_transmit_config
 560              		.syntax unified
 561              		.thumb
 562              		.thumb_func
 564              	usart_transmit_config:
 565              	.LVL78:
 566              	.LFB123:
 222:Drivers/GD32_F470_STD_Driver/Source/gd32f4xx_usart.c **** 
 223:Drivers/GD32_F470_STD_Driver/Source/gd32f4xx_usart.c **** /*!
 224:Drivers/GD32_F470_STD_Driver/Source/gd32f4xx_usart.c ****     \brief    configure USART transmitter
 225:Drivers/GD32_F470_STD_Driver/Source/gd32f4xx_usart.c ****     \param[in]  usart_periph: USARTx(x=0,1,2,5)/UARTx(x=3,4,6,7)
 226:Drivers/GD32_F470_STD_Driver/Source/gd32f4xx_usart.c ****     \param[in]  txconfig: enable or disable USART transmitter
 227:Drivers/GD32_F470_STD_Driver/Source/gd32f4xx_usart.c ****                 only one parameter can be selected which is shown as below:
 228:Drivers/GD32_F470_STD_Driver/Source/gd32f4xx_usart.c ****       \arg        USART_TRANSMIT_ENABLE: enable USART transmission
 229:Drivers/GD32_F470_STD_Driver/Source/gd32f4xx_usart.c ****       \arg        USART_TRANSMIT_DISABLE: enable USART transmission
 230:Drivers/GD32_F470_STD_Driver/Source/gd32f4xx_usart.c ****     \param[out] none
 231:Drivers/GD32_F470_STD_Driver/Source/gd32f4xx_usart.c ****     \retval     none
 232:Drivers/GD32_F470_STD_Driver/Source/gd32f4xx_usart.c **** */
 233:Drivers/GD32_F470_STD_Driver/Source/gd32f4xx_usart.c **** void usart_transmit_config(uint32_t usart_periph, uint32_t txconfig)
ARM GAS  /tmp/ccLXJ74X.s 			page 16


 234:Drivers/GD32_F470_STD_Driver/Source/gd32f4xx_usart.c **** {
 567              		.loc 1 234 1 is_stmt 1 view -0
 568              		.cfi_startproc
 569              		@ args = 0, pretend = 0, frame = 0
 570              		@ frame_needed = 0, uses_anonymous_args = 0
 571              		@ link register save eliminated.
 235:Drivers/GD32_F470_STD_Driver/Source/gd32f4xx_usart.c ****     uint32_t ctl = 0U;
 572              		.loc 1 235 5 view .LVU136
 236:Drivers/GD32_F470_STD_Driver/Source/gd32f4xx_usart.c **** 
 237:Drivers/GD32_F470_STD_Driver/Source/gd32f4xx_usart.c ****     ctl = USART_CTL0(usart_periph);
 573              		.loc 1 237 5 view .LVU137
 574              		.loc 1 237 9 is_stmt 0 view .LVU138
 575 0000 C368     		ldr	r3, [r0, #12]
 576              	.LVL79:
 238:Drivers/GD32_F470_STD_Driver/Source/gd32f4xx_usart.c ****     ctl &= ~USART_CTL0_TEN;
 577              		.loc 1 238 5 is_stmt 1 view .LVU139
 578              		.loc 1 238 9 is_stmt 0 view .LVU140
 579 0002 23F00803 		bic	r3, r3, #8
 580              	.LVL80:
 239:Drivers/GD32_F470_STD_Driver/Source/gd32f4xx_usart.c ****     ctl |= txconfig;
 581              		.loc 1 239 5 is_stmt 1 view .LVU141
 582              		.loc 1 239 9 is_stmt 0 view .LVU142
 583 0006 0B43     		orrs	r3, r3, r1
 584              	.LVL81:
 240:Drivers/GD32_F470_STD_Driver/Source/gd32f4xx_usart.c ****     /* configure transfer mode */
 241:Drivers/GD32_F470_STD_Driver/Source/gd32f4xx_usart.c ****     USART_CTL0(usart_periph) = ctl;
 585              		.loc 1 241 5 is_stmt 1 view .LVU143
 586              		.loc 1 241 30 is_stmt 0 view .LVU144
 587 0008 C360     		str	r3, [r0, #12]
 242:Drivers/GD32_F470_STD_Driver/Source/gd32f4xx_usart.c **** }
 588              		.loc 1 242 1 view .LVU145
 589 000a 7047     		bx	lr
 590              		.cfi_endproc
 591              	.LFE123:
 593              		.section	.text.usart_receive_config,"ax",%progbits
 594              		.align	1
 595              		.global	usart_receive_config
 596              		.syntax unified
 597              		.thumb
 598              		.thumb_func
 600              	usart_receive_config:
 601              	.LVL82:
 602              	.LFB124:
 243:Drivers/GD32_F470_STD_Driver/Source/gd32f4xx_usart.c **** 
 244:Drivers/GD32_F470_STD_Driver/Source/gd32f4xx_usart.c **** /*!
 245:Drivers/GD32_F470_STD_Driver/Source/gd32f4xx_usart.c ****     \brief    configure USART receiver
 246:Drivers/GD32_F470_STD_Driver/Source/gd32f4xx_usart.c ****     \param[in]  usart_periph: USARTx(x=0,1,2,5)/UARTx(x=3,4,6,7)
 247:Drivers/GD32_F470_STD_Driver/Source/gd32f4xx_usart.c ****     \param[in]  rxconfig: enable or disable USART receiver
 248:Drivers/GD32_F470_STD_Driver/Source/gd32f4xx_usart.c ****                 only one parameter can be selected which is shown as below:
 249:Drivers/GD32_F470_STD_Driver/Source/gd32f4xx_usart.c ****       \arg        USART_RECEIVE_ENABLE: enable USART reception
 250:Drivers/GD32_F470_STD_Driver/Source/gd32f4xx_usart.c ****       \arg        USART_RECEIVE_DISABLE: disable USART reception
 251:Drivers/GD32_F470_STD_Driver/Source/gd32f4xx_usart.c ****     \param[out] none
 252:Drivers/GD32_F470_STD_Driver/Source/gd32f4xx_usart.c ****     \retval     none
 253:Drivers/GD32_F470_STD_Driver/Source/gd32f4xx_usart.c **** */
 254:Drivers/GD32_F470_STD_Driver/Source/gd32f4xx_usart.c **** void usart_receive_config(uint32_t usart_periph, uint32_t rxconfig)
 255:Drivers/GD32_F470_STD_Driver/Source/gd32f4xx_usart.c **** {
 603              		.loc 1 255 1 is_stmt 1 view -0
ARM GAS  /tmp/ccLXJ74X.s 			page 17


 604              		.cfi_startproc
 605              		@ args = 0, pretend = 0, frame = 0
 606              		@ frame_needed = 0, uses_anonymous_args = 0
 607              		@ link register save eliminated.
 256:Drivers/GD32_F470_STD_Driver/Source/gd32f4xx_usart.c ****     uint32_t ctl = 0U;
 608              		.loc 1 256 5 view .LVU147
 257:Drivers/GD32_F470_STD_Driver/Source/gd32f4xx_usart.c **** 
 258:Drivers/GD32_F470_STD_Driver/Source/gd32f4xx_usart.c ****     ctl = USART_CTL0(usart_periph);
 609              		.loc 1 258 5 view .LVU148
 610              		.loc 1 258 9 is_stmt 0 view .LVU149
 611 0000 C368     		ldr	r3, [r0, #12]
 612              	.LVL83:
 259:Drivers/GD32_F470_STD_Driver/Source/gd32f4xx_usart.c ****     ctl &= ~USART_CTL0_REN;
 613              		.loc 1 259 5 is_stmt 1 view .LVU150
 614              		.loc 1 259 9 is_stmt 0 view .LVU151
 615 0002 23F00403 		bic	r3, r3, #4
 616              	.LVL84:
 260:Drivers/GD32_F470_STD_Driver/Source/gd32f4xx_usart.c ****     ctl |= rxconfig;
 617              		.loc 1 260 5 is_stmt 1 view .LVU152
 618              		.loc 1 260 9 is_stmt 0 view .LVU153
 619 0006 0B43     		orrs	r3, r3, r1
 620              	.LVL85:
 261:Drivers/GD32_F470_STD_Driver/Source/gd32f4xx_usart.c ****     /* configure transfer mode */
 262:Drivers/GD32_F470_STD_Driver/Source/gd32f4xx_usart.c ****     USART_CTL0(usart_periph) = ctl;
 621              		.loc 1 262 5 is_stmt 1 view .LVU154
 622              		.loc 1 262 30 is_stmt 0 view .LVU155
 623 0008 C360     		str	r3, [r0, #12]
 263:Drivers/GD32_F470_STD_Driver/Source/gd32f4xx_usart.c **** }
 624              		.loc 1 263 1 view .LVU156
 625 000a 7047     		bx	lr
 626              		.cfi_endproc
 627              	.LFE124:
 629              		.section	.text.usart_data_first_config,"ax",%progbits
 630              		.align	1
 631              		.global	usart_data_first_config
 632              		.syntax unified
 633              		.thumb
 634              		.thumb_func
 636              	usart_data_first_config:
 637              	.LVL86:
 638              	.LFB125:
 264:Drivers/GD32_F470_STD_Driver/Source/gd32f4xx_usart.c **** 
 265:Drivers/GD32_F470_STD_Driver/Source/gd32f4xx_usart.c **** /*!
 266:Drivers/GD32_F470_STD_Driver/Source/gd32f4xx_usart.c ****     \brief    data is transmitted/received with the LSB/MSB first
 267:Drivers/GD32_F470_STD_Driver/Source/gd32f4xx_usart.c ****     \param[in]  usart_periph: USARTx(x=0,1,2,5)
 268:Drivers/GD32_F470_STD_Driver/Source/gd32f4xx_usart.c ****     \param[in]  msbf: LSB/MSB
 269:Drivers/GD32_F470_STD_Driver/Source/gd32f4xx_usart.c ****                 only one parameter can be selected which is shown as below:
 270:Drivers/GD32_F470_STD_Driver/Source/gd32f4xx_usart.c ****       \arg        USART_MSBF_LSB: LSB first
 271:Drivers/GD32_F470_STD_Driver/Source/gd32f4xx_usart.c ****       \arg        USART_MSBF_MSB: MSB first
 272:Drivers/GD32_F470_STD_Driver/Source/gd32f4xx_usart.c ****     \param[out] none
 273:Drivers/GD32_F470_STD_Driver/Source/gd32f4xx_usart.c ****     \retval     none
 274:Drivers/GD32_F470_STD_Driver/Source/gd32f4xx_usart.c **** */
 275:Drivers/GD32_F470_STD_Driver/Source/gd32f4xx_usart.c **** void usart_data_first_config(uint32_t usart_periph, uint32_t msbf)
 276:Drivers/GD32_F470_STD_Driver/Source/gd32f4xx_usart.c **** {
 639              		.loc 1 276 1 is_stmt 1 view -0
 640              		.cfi_startproc
 641              		@ args = 0, pretend = 0, frame = 0
ARM GAS  /tmp/ccLXJ74X.s 			page 18


 642              		@ frame_needed = 0, uses_anonymous_args = 0
 643              		@ link register save eliminated.
 277:Drivers/GD32_F470_STD_Driver/Source/gd32f4xx_usart.c ****     uint32_t ctl = 0U;
 644              		.loc 1 277 5 view .LVU158
 278:Drivers/GD32_F470_STD_Driver/Source/gd32f4xx_usart.c **** 
 279:Drivers/GD32_F470_STD_Driver/Source/gd32f4xx_usart.c ****     ctl = USART_CTL3(usart_periph);
 645              		.loc 1 279 5 view .LVU159
 646              		.loc 1 279 9 is_stmt 0 view .LVU160
 647 0000 D0F88030 		ldr	r3, [r0, #128]
 648              	.LVL87:
 280:Drivers/GD32_F470_STD_Driver/Source/gd32f4xx_usart.c ****     ctl &= ~(USART_CTL3_MSBF);
 649              		.loc 1 280 5 is_stmt 1 view .LVU161
 650              		.loc 1 280 9 is_stmt 0 view .LVU162
 651 0004 23F40063 		bic	r3, r3, #2048
 652              	.LVL88:
 281:Drivers/GD32_F470_STD_Driver/Source/gd32f4xx_usart.c ****     ctl |= msbf;
 653              		.loc 1 281 5 is_stmt 1 view .LVU163
 654              		.loc 1 281 9 is_stmt 0 view .LVU164
 655 0008 0B43     		orrs	r3, r3, r1
 656              	.LVL89:
 282:Drivers/GD32_F470_STD_Driver/Source/gd32f4xx_usart.c ****     /* configure data transmitted/received mode */
 283:Drivers/GD32_F470_STD_Driver/Source/gd32f4xx_usart.c ****     USART_CTL3(usart_periph) = ctl;
 657              		.loc 1 283 5 is_stmt 1 view .LVU165
 658              		.loc 1 283 30 is_stmt 0 view .LVU166
 659 000a C0F88030 		str	r3, [r0, #128]
 284:Drivers/GD32_F470_STD_Driver/Source/gd32f4xx_usart.c **** }
 660              		.loc 1 284 1 view .LVU167
 661 000e 7047     		bx	lr
 662              		.cfi_endproc
 663              	.LFE125:
 665              		.section	.text.usart_invert_config,"ax",%progbits
 666              		.align	1
 667              		.global	usart_invert_config
 668              		.syntax unified
 669              		.thumb
 670              		.thumb_func
 672              	usart_invert_config:
 673              	.LVL90:
 674              	.LFB126:
 285:Drivers/GD32_F470_STD_Driver/Source/gd32f4xx_usart.c **** 
 286:Drivers/GD32_F470_STD_Driver/Source/gd32f4xx_usart.c **** /*!
 287:Drivers/GD32_F470_STD_Driver/Source/gd32f4xx_usart.c ****     \brief    configure USART inversion
 288:Drivers/GD32_F470_STD_Driver/Source/gd32f4xx_usart.c ****     \param[in]  usart_periph: USARTx(x=0,1,2,5)
 289:Drivers/GD32_F470_STD_Driver/Source/gd32f4xx_usart.c ****     \param[in]  invertpara: refer to enum USART_INVERT_CONFIG
 290:Drivers/GD32_F470_STD_Driver/Source/gd32f4xx_usart.c ****                 only one parameter can be selected which is shown as below:
 291:Drivers/GD32_F470_STD_Driver/Source/gd32f4xx_usart.c ****       \arg        USART_DINV_ENABLE: data bit level inversion
 292:Drivers/GD32_F470_STD_Driver/Source/gd32f4xx_usart.c ****       \arg        USART_DINV_DISABLE: data bit level not inversion
 293:Drivers/GD32_F470_STD_Driver/Source/gd32f4xx_usart.c ****       \arg        USART_TXPIN_ENABLE: TX pin level inversion
 294:Drivers/GD32_F470_STD_Driver/Source/gd32f4xx_usart.c ****       \arg        USART_TXPIN_DISABLE: TX pin level not inversion
 295:Drivers/GD32_F470_STD_Driver/Source/gd32f4xx_usart.c ****       \arg        USART_RXPIN_ENABLE: RX pin level inversion
 296:Drivers/GD32_F470_STD_Driver/Source/gd32f4xx_usart.c ****       \arg        USART_RXPIN_DISABLE: RX pin level not inversion
 297:Drivers/GD32_F470_STD_Driver/Source/gd32f4xx_usart.c ****     \param[out] none
 298:Drivers/GD32_F470_STD_Driver/Source/gd32f4xx_usart.c ****     \retval     none
 299:Drivers/GD32_F470_STD_Driver/Source/gd32f4xx_usart.c **** */
 300:Drivers/GD32_F470_STD_Driver/Source/gd32f4xx_usart.c **** void usart_invert_config(uint32_t usart_periph, usart_invert_enum invertpara)
 301:Drivers/GD32_F470_STD_Driver/Source/gd32f4xx_usart.c **** {
 675              		.loc 1 301 1 is_stmt 1 view -0
ARM GAS  /tmp/ccLXJ74X.s 			page 19


 676              		.cfi_startproc
 677              		@ args = 0, pretend = 0, frame = 0
 678              		@ frame_needed = 0, uses_anonymous_args = 0
 679              		@ link register save eliminated.
 302:Drivers/GD32_F470_STD_Driver/Source/gd32f4xx_usart.c ****     /* inverted or not the specified siginal */
 303:Drivers/GD32_F470_STD_Driver/Source/gd32f4xx_usart.c ****     switch(invertpara) {
 680              		.loc 1 303 5 view .LVU169
 681 0000 0529     		cmp	r1, #5
 682 0002 2DD8     		bhi	.L48
 683 0004 DFE801F0 		tbb	[pc, r1]
 684              	.L51:
 685 0008 03       		.byte	(.L56-.L51)/2
 686 0009 18       		.byte	(.L55-.L51)/2
 687 000a 0A       		.byte	(.L54-.L51)/2
 688 000b 1F       		.byte	(.L53-.L51)/2
 689 000c 11       		.byte	(.L52-.L51)/2
 690 000d 26       		.byte	(.L50-.L51)/2
 691              		.p2align 1
 692              	.L56:
 304:Drivers/GD32_F470_STD_Driver/Source/gd32f4xx_usart.c ****     case USART_DINV_ENABLE:
 305:Drivers/GD32_F470_STD_Driver/Source/gd32f4xx_usart.c ****         USART_CTL3(usart_periph) |= USART_CTL3_DINV;
 693              		.loc 1 305 9 view .LVU170
 694              		.loc 1 305 34 is_stmt 0 view .LVU171
 695 000e D0F88030 		ldr	r3, [r0, #128]
 696 0012 43F48063 		orr	r3, r3, #1024
 697 0016 C0F88030 		str	r3, [r0, #128]
 306:Drivers/GD32_F470_STD_Driver/Source/gd32f4xx_usart.c ****         break;
 698              		.loc 1 306 9 is_stmt 1 view .LVU172
 699 001a 7047     		bx	lr
 700              	.L54:
 307:Drivers/GD32_F470_STD_Driver/Source/gd32f4xx_usart.c ****     case USART_TXPIN_ENABLE:
 308:Drivers/GD32_F470_STD_Driver/Source/gd32f4xx_usart.c ****         USART_CTL3(usart_periph) |= USART_CTL3_TINV;
 701              		.loc 1 308 9 view .LVU173
 702              		.loc 1 308 34 is_stmt 0 view .LVU174
 703 001c D0F88030 		ldr	r3, [r0, #128]
 704 0020 43F40073 		orr	r3, r3, #512
 705 0024 C0F88030 		str	r3, [r0, #128]
 309:Drivers/GD32_F470_STD_Driver/Source/gd32f4xx_usart.c ****         break;
 706              		.loc 1 309 9 is_stmt 1 view .LVU175
 707 0028 7047     		bx	lr
 708              	.L52:
 310:Drivers/GD32_F470_STD_Driver/Source/gd32f4xx_usart.c ****     case USART_RXPIN_ENABLE:
 311:Drivers/GD32_F470_STD_Driver/Source/gd32f4xx_usart.c ****         USART_CTL3(usart_periph) |= USART_CTL3_RINV;
 709              		.loc 1 311 9 view .LVU176
 710              		.loc 1 311 34 is_stmt 0 view .LVU177
 711 002a D0F88030 		ldr	r3, [r0, #128]
 712 002e 43F48073 		orr	r3, r3, #256
 713 0032 C0F88030 		str	r3, [r0, #128]
 312:Drivers/GD32_F470_STD_Driver/Source/gd32f4xx_usart.c ****         break;
 714              		.loc 1 312 9 is_stmt 1 view .LVU178
 715 0036 7047     		bx	lr
 716              	.L55:
 313:Drivers/GD32_F470_STD_Driver/Source/gd32f4xx_usart.c ****     case USART_DINV_DISABLE:
 314:Drivers/GD32_F470_STD_Driver/Source/gd32f4xx_usart.c ****         USART_CTL3(usart_periph) &= ~(USART_CTL3_DINV);
 717              		.loc 1 314 9 view .LVU179
 718              		.loc 1 314 34 is_stmt 0 view .LVU180
 719 0038 D0F88030 		ldr	r3, [r0, #128]
ARM GAS  /tmp/ccLXJ74X.s 			page 20


 720 003c 23F48063 		bic	r3, r3, #1024
 721 0040 C0F88030 		str	r3, [r0, #128]
 315:Drivers/GD32_F470_STD_Driver/Source/gd32f4xx_usart.c ****         break;
 722              		.loc 1 315 9 is_stmt 1 view .LVU181
 723 0044 7047     		bx	lr
 724              	.L53:
 316:Drivers/GD32_F470_STD_Driver/Source/gd32f4xx_usart.c ****     case USART_TXPIN_DISABLE:
 317:Drivers/GD32_F470_STD_Driver/Source/gd32f4xx_usart.c ****         USART_CTL3(usart_periph) &= ~(USART_CTL3_TINV);
 725              		.loc 1 317 9 view .LVU182
 726              		.loc 1 317 34 is_stmt 0 view .LVU183
 727 0046 D0F88030 		ldr	r3, [r0, #128]
 728 004a 23F40073 		bic	r3, r3, #512
 729 004e C0F88030 		str	r3, [r0, #128]
 318:Drivers/GD32_F470_STD_Driver/Source/gd32f4xx_usart.c ****         break;
 730              		.loc 1 318 9 is_stmt 1 view .LVU184
 731 0052 7047     		bx	lr
 732              	.L50:
 319:Drivers/GD32_F470_STD_Driver/Source/gd32f4xx_usart.c ****     case USART_RXPIN_DISABLE:
 320:Drivers/GD32_F470_STD_Driver/Source/gd32f4xx_usart.c ****         USART_CTL3(usart_periph) &= ~(USART_CTL3_RINV);
 733              		.loc 1 320 9 view .LVU185
 734              		.loc 1 320 34 is_stmt 0 view .LVU186
 735 0054 D0F88030 		ldr	r3, [r0, #128]
 736 0058 23F48073 		bic	r3, r3, #256
 737 005c C0F88030 		str	r3, [r0, #128]
 321:Drivers/GD32_F470_STD_Driver/Source/gd32f4xx_usart.c ****         break;
 738              		.loc 1 321 9 is_stmt 1 view .LVU187
 739              	.L48:
 322:Drivers/GD32_F470_STD_Driver/Source/gd32f4xx_usart.c ****     default:
 323:Drivers/GD32_F470_STD_Driver/Source/gd32f4xx_usart.c ****         break;
 324:Drivers/GD32_F470_STD_Driver/Source/gd32f4xx_usart.c ****     }
 325:Drivers/GD32_F470_STD_Driver/Source/gd32f4xx_usart.c **** }
 740              		.loc 1 325 1 is_stmt 0 view .LVU188
 741 0060 7047     		bx	lr
 742              		.cfi_endproc
 743              	.LFE126:
 745              		.section	.text.usart_oversample_config,"ax",%progbits
 746              		.align	1
 747              		.global	usart_oversample_config
 748              		.syntax unified
 749              		.thumb
 750              		.thumb_func
 752              	usart_oversample_config:
 753              	.LVL91:
 754              	.LFB127:
 326:Drivers/GD32_F470_STD_Driver/Source/gd32f4xx_usart.c **** 
 327:Drivers/GD32_F470_STD_Driver/Source/gd32f4xx_usart.c **** /*!
 328:Drivers/GD32_F470_STD_Driver/Source/gd32f4xx_usart.c ****     \brief    configure the USART oversample mode
 329:Drivers/GD32_F470_STD_Driver/Source/gd32f4xx_usart.c ****     \param[in]  usart_periph: USARTx(x=0,1,2,5)/UARTx(x=3,4,6,7)
 330:Drivers/GD32_F470_STD_Driver/Source/gd32f4xx_usart.c ****     \param[in]  oversamp: oversample value
 331:Drivers/GD32_F470_STD_Driver/Source/gd32f4xx_usart.c ****                 only one parameter can be selected which is shown as below:
 332:Drivers/GD32_F470_STD_Driver/Source/gd32f4xx_usart.c ****       \arg        USART_OVSMOD_8: 8 bits
 333:Drivers/GD32_F470_STD_Driver/Source/gd32f4xx_usart.c ****       \arg        USART_OVSMOD_16: 16 bits
 334:Drivers/GD32_F470_STD_Driver/Source/gd32f4xx_usart.c ****     \param[out] none
 335:Drivers/GD32_F470_STD_Driver/Source/gd32f4xx_usart.c ****     \retval     none
 336:Drivers/GD32_F470_STD_Driver/Source/gd32f4xx_usart.c **** */
 337:Drivers/GD32_F470_STD_Driver/Source/gd32f4xx_usart.c **** void usart_oversample_config(uint32_t usart_periph, uint32_t oversamp)
 338:Drivers/GD32_F470_STD_Driver/Source/gd32f4xx_usart.c **** {
ARM GAS  /tmp/ccLXJ74X.s 			page 21


 755              		.loc 1 338 1 is_stmt 1 view -0
 756              		.cfi_startproc
 757              		@ args = 0, pretend = 0, frame = 0
 758              		@ frame_needed = 0, uses_anonymous_args = 0
 759              		@ link register save eliminated.
 339:Drivers/GD32_F470_STD_Driver/Source/gd32f4xx_usart.c ****     /*  clear OVSMOD bit */
 340:Drivers/GD32_F470_STD_Driver/Source/gd32f4xx_usart.c ****     USART_CTL0(usart_periph) &= ~(USART_CTL0_OVSMOD);
 760              		.loc 1 340 5 view .LVU190
 761              		.loc 1 340 30 is_stmt 0 view .LVU191
 762 0000 C268     		ldr	r2, [r0, #12]
 763 0002 22F40042 		bic	r2, r2, #32768
 764 0006 C260     		str	r2, [r0, #12]
 341:Drivers/GD32_F470_STD_Driver/Source/gd32f4xx_usart.c ****     USART_CTL0(usart_periph) |= oversamp;
 765              		.loc 1 341 5 is_stmt 1 view .LVU192
 766              		.loc 1 341 30 is_stmt 0 view .LVU193
 767 0008 C368     		ldr	r3, [r0, #12]
 768 000a 0B43     		orrs	r3, r3, r1
 769 000c C360     		str	r3, [r0, #12]
 342:Drivers/GD32_F470_STD_Driver/Source/gd32f4xx_usart.c **** }
 770              		.loc 1 342 1 view .LVU194
 771 000e 7047     		bx	lr
 772              		.cfi_endproc
 773              	.LFE127:
 775              		.section	.text.usart_sample_bit_config,"ax",%progbits
 776              		.align	1
 777              		.global	usart_sample_bit_config
 778              		.syntax unified
 779              		.thumb
 780              		.thumb_func
 782              	usart_sample_bit_config:
 783              	.LVL92:
 784              	.LFB128:
 343:Drivers/GD32_F470_STD_Driver/Source/gd32f4xx_usart.c **** 
 344:Drivers/GD32_F470_STD_Driver/Source/gd32f4xx_usart.c **** /*!
 345:Drivers/GD32_F470_STD_Driver/Source/gd32f4xx_usart.c ****     \brief    configure sample bit method
 346:Drivers/GD32_F470_STD_Driver/Source/gd32f4xx_usart.c ****     \param[in]  usart_periph: USARTx(x=0,1,2,5)/UARTx(x=3,4,6,7)
 347:Drivers/GD32_F470_STD_Driver/Source/gd32f4xx_usart.c ****     \param[in]  obsm: sample bit
 348:Drivers/GD32_F470_STD_Driver/Source/gd32f4xx_usart.c ****                 only one parameter can be selected which is shown as below:
 349:Drivers/GD32_F470_STD_Driver/Source/gd32f4xx_usart.c ****       \arg        USART_OSB_1bit: 1 bit
 350:Drivers/GD32_F470_STD_Driver/Source/gd32f4xx_usart.c ****       \arg        USART_OSB_3bit: 3 bits
 351:Drivers/GD32_F470_STD_Driver/Source/gd32f4xx_usart.c ****     \param[out] none
 352:Drivers/GD32_F470_STD_Driver/Source/gd32f4xx_usart.c ****     \retval     none
 353:Drivers/GD32_F470_STD_Driver/Source/gd32f4xx_usart.c **** */
 354:Drivers/GD32_F470_STD_Driver/Source/gd32f4xx_usart.c **** void usart_sample_bit_config(uint32_t usart_periph, uint32_t obsm)
 355:Drivers/GD32_F470_STD_Driver/Source/gd32f4xx_usart.c **** {
 785              		.loc 1 355 1 is_stmt 1 view -0
 786              		.cfi_startproc
 787              		@ args = 0, pretend = 0, frame = 0
 788              		@ frame_needed = 0, uses_anonymous_args = 0
 789              		@ link register save eliminated.
 356:Drivers/GD32_F470_STD_Driver/Source/gd32f4xx_usart.c ****     USART_CTL2(usart_periph) &= ~(USART_CTL2_OSB);
 790              		.loc 1 356 5 view .LVU196
 791              		.loc 1 356 30 is_stmt 0 view .LVU197
 792 0000 4269     		ldr	r2, [r0, #20]
 793 0002 22F40062 		bic	r2, r2, #2048
 794 0006 4261     		str	r2, [r0, #20]
 357:Drivers/GD32_F470_STD_Driver/Source/gd32f4xx_usart.c ****     USART_CTL2(usart_periph) |= obsm;
ARM GAS  /tmp/ccLXJ74X.s 			page 22


 795              		.loc 1 357 5 is_stmt 1 view .LVU198
 796              		.loc 1 357 30 is_stmt 0 view .LVU199
 797 0008 4369     		ldr	r3, [r0, #20]
 798 000a 0B43     		orrs	r3, r3, r1
 799 000c 4361     		str	r3, [r0, #20]
 358:Drivers/GD32_F470_STD_Driver/Source/gd32f4xx_usart.c **** }
 800              		.loc 1 358 1 view .LVU200
 801 000e 7047     		bx	lr
 802              		.cfi_endproc
 803              	.LFE128:
 805              		.section	.text.usart_receiver_timeout_enable,"ax",%progbits
 806              		.align	1
 807              		.global	usart_receiver_timeout_enable
 808              		.syntax unified
 809              		.thumb
 810              		.thumb_func
 812              	usart_receiver_timeout_enable:
 813              	.LVL93:
 814              	.LFB129:
 359:Drivers/GD32_F470_STD_Driver/Source/gd32f4xx_usart.c **** 
 360:Drivers/GD32_F470_STD_Driver/Source/gd32f4xx_usart.c **** /*!
 361:Drivers/GD32_F470_STD_Driver/Source/gd32f4xx_usart.c ****     \brief    enable receiver timeout of USART
 362:Drivers/GD32_F470_STD_Driver/Source/gd32f4xx_usart.c ****     \param[in]  usart_periph: USARTx(x=0,1,2,5)
 363:Drivers/GD32_F470_STD_Driver/Source/gd32f4xx_usart.c ****     \param[out] none
 364:Drivers/GD32_F470_STD_Driver/Source/gd32f4xx_usart.c ****     \retval     none
 365:Drivers/GD32_F470_STD_Driver/Source/gd32f4xx_usart.c **** */
 366:Drivers/GD32_F470_STD_Driver/Source/gd32f4xx_usart.c **** void usart_receiver_timeout_enable(uint32_t usart_periph)
 367:Drivers/GD32_F470_STD_Driver/Source/gd32f4xx_usart.c **** {
 815              		.loc 1 367 1 is_stmt 1 view -0
 816              		.cfi_startproc
 817              		@ args = 0, pretend = 0, frame = 0
 818              		@ frame_needed = 0, uses_anonymous_args = 0
 819              		@ link register save eliminated.
 368:Drivers/GD32_F470_STD_Driver/Source/gd32f4xx_usart.c ****     USART_CTL3(usart_periph) |= USART_CTL3_RTEN;
 820              		.loc 1 368 5 view .LVU202
 821              		.loc 1 368 30 is_stmt 0 view .LVU203
 822 0000 D0F88030 		ldr	r3, [r0, #128]
 823 0004 43F00103 		orr	r3, r3, #1
 824 0008 C0F88030 		str	r3, [r0, #128]
 369:Drivers/GD32_F470_STD_Driver/Source/gd32f4xx_usart.c **** }
 825              		.loc 1 369 1 view .LVU204
 826 000c 7047     		bx	lr
 827              		.cfi_endproc
 828              	.LFE129:
 830              		.section	.text.usart_receiver_timeout_disable,"ax",%progbits
 831              		.align	1
 832              		.global	usart_receiver_timeout_disable
 833              		.syntax unified
 834              		.thumb
 835              		.thumb_func
 837              	usart_receiver_timeout_disable:
 838              	.LVL94:
 839              	.LFB130:
 370:Drivers/GD32_F470_STD_Driver/Source/gd32f4xx_usart.c **** 
 371:Drivers/GD32_F470_STD_Driver/Source/gd32f4xx_usart.c **** /*!
 372:Drivers/GD32_F470_STD_Driver/Source/gd32f4xx_usart.c ****     \brief    disable receiver timeout of USART
 373:Drivers/GD32_F470_STD_Driver/Source/gd32f4xx_usart.c ****     \param[in]  usart_periph: USARTx(x=0,1,2,5)
ARM GAS  /tmp/ccLXJ74X.s 			page 23


 374:Drivers/GD32_F470_STD_Driver/Source/gd32f4xx_usart.c ****     \param[out] none
 375:Drivers/GD32_F470_STD_Driver/Source/gd32f4xx_usart.c ****     \retval     none
 376:Drivers/GD32_F470_STD_Driver/Source/gd32f4xx_usart.c **** */
 377:Drivers/GD32_F470_STD_Driver/Source/gd32f4xx_usart.c **** void usart_receiver_timeout_disable(uint32_t usart_periph)
 378:Drivers/GD32_F470_STD_Driver/Source/gd32f4xx_usart.c **** {
 840              		.loc 1 378 1 is_stmt 1 view -0
 841              		.cfi_startproc
 842              		@ args = 0, pretend = 0, frame = 0
 843              		@ frame_needed = 0, uses_anonymous_args = 0
 844              		@ link register save eliminated.
 379:Drivers/GD32_F470_STD_Driver/Source/gd32f4xx_usart.c ****     USART_CTL3(usart_periph) &= ~(USART_CTL3_RTEN);
 845              		.loc 1 379 5 view .LVU206
 846              		.loc 1 379 30 is_stmt 0 view .LVU207
 847 0000 D0F88030 		ldr	r3, [r0, #128]
 848 0004 23F00103 		bic	r3, r3, #1
 849 0008 C0F88030 		str	r3, [r0, #128]
 380:Drivers/GD32_F470_STD_Driver/Source/gd32f4xx_usart.c **** }
 850              		.loc 1 380 1 view .LVU208
 851 000c 7047     		bx	lr
 852              		.cfi_endproc
 853              	.LFE130:
 855              		.section	.text.usart_receiver_timeout_threshold_config,"ax",%progbits
 856              		.align	1
 857              		.global	usart_receiver_timeout_threshold_config
 858              		.syntax unified
 859              		.thumb
 860              		.thumb_func
 862              	usart_receiver_timeout_threshold_config:
 863              	.LVL95:
 864              	.LFB131:
 381:Drivers/GD32_F470_STD_Driver/Source/gd32f4xx_usart.c **** 
 382:Drivers/GD32_F470_STD_Driver/Source/gd32f4xx_usart.c **** /*!
 383:Drivers/GD32_F470_STD_Driver/Source/gd32f4xx_usart.c ****     \brief    set the receiver timeout threshold of USART
 384:Drivers/GD32_F470_STD_Driver/Source/gd32f4xx_usart.c ****     \param[in]  usart_periph: USARTx(x=0,1,2,5)
 385:Drivers/GD32_F470_STD_Driver/Source/gd32f4xx_usart.c ****     \param[in]  rtimeout: 0-0x00FFFFFF
 386:Drivers/GD32_F470_STD_Driver/Source/gd32f4xx_usart.c ****     \param[out] none
 387:Drivers/GD32_F470_STD_Driver/Source/gd32f4xx_usart.c ****     \retval     none
 388:Drivers/GD32_F470_STD_Driver/Source/gd32f4xx_usart.c **** */
 389:Drivers/GD32_F470_STD_Driver/Source/gd32f4xx_usart.c **** void usart_receiver_timeout_threshold_config(uint32_t usart_periph, uint32_t rtimeout)
 390:Drivers/GD32_F470_STD_Driver/Source/gd32f4xx_usart.c **** {
 865              		.loc 1 390 1 is_stmt 1 view -0
 866              		.cfi_startproc
 867              		@ args = 0, pretend = 0, frame = 0
 868              		@ frame_needed = 0, uses_anonymous_args = 0
 869              		@ link register save eliminated.
 391:Drivers/GD32_F470_STD_Driver/Source/gd32f4xx_usart.c ****     USART_RT(usart_periph) &= ~(USART_RT_RT);
 870              		.loc 1 391 5 view .LVU210
 871              		.loc 1 391 28 is_stmt 0 view .LVU211
 872 0000 D0F88420 		ldr	r2, [r0, #132]
 873 0004 02F07F42 		and	r2, r2, #-16777216
 874 0008 C0F88420 		str	r2, [r0, #132]
 392:Drivers/GD32_F470_STD_Driver/Source/gd32f4xx_usart.c ****     USART_RT(usart_periph) |= rtimeout;
 875              		.loc 1 392 5 is_stmt 1 view .LVU212
 876              		.loc 1 392 28 is_stmt 0 view .LVU213
 877 000c D0F88430 		ldr	r3, [r0, #132]
 878 0010 0B43     		orrs	r3, r3, r1
 879 0012 C0F88430 		str	r3, [r0, #132]
ARM GAS  /tmp/ccLXJ74X.s 			page 24


 393:Drivers/GD32_F470_STD_Driver/Source/gd32f4xx_usart.c **** }
 880              		.loc 1 393 1 view .LVU214
 881 0016 7047     		bx	lr
 882              		.cfi_endproc
 883              	.LFE131:
 885              		.section	.text.usart_data_transmit,"ax",%progbits
 886              		.align	1
 887              		.global	usart_data_transmit
 888              		.syntax unified
 889              		.thumb
 890              		.thumb_func
 892              	usart_data_transmit:
 893              	.LVL96:
 894              	.LFB132:
 394:Drivers/GD32_F470_STD_Driver/Source/gd32f4xx_usart.c **** 
 395:Drivers/GD32_F470_STD_Driver/Source/gd32f4xx_usart.c **** /*!
 396:Drivers/GD32_F470_STD_Driver/Source/gd32f4xx_usart.c ****     \brief    USART transmit data function
 397:Drivers/GD32_F470_STD_Driver/Source/gd32f4xx_usart.c ****     \param[in]  usart_periph: USARTx(x=0,1,2,5)/UARTx(x=3,4,6,7)
 398:Drivers/GD32_F470_STD_Driver/Source/gd32f4xx_usart.c ****     \param[in]  data: data of transmission
 399:Drivers/GD32_F470_STD_Driver/Source/gd32f4xx_usart.c ****     \param[out] none
 400:Drivers/GD32_F470_STD_Driver/Source/gd32f4xx_usart.c ****     \retval     none
 401:Drivers/GD32_F470_STD_Driver/Source/gd32f4xx_usart.c **** */
 402:Drivers/GD32_F470_STD_Driver/Source/gd32f4xx_usart.c **** void usart_data_transmit(uint32_t usart_periph, uint32_t data)
 403:Drivers/GD32_F470_STD_Driver/Source/gd32f4xx_usart.c **** {
 895              		.loc 1 403 1 is_stmt 1 view -0
 896              		.cfi_startproc
 897              		@ args = 0, pretend = 0, frame = 0
 898              		@ frame_needed = 0, uses_anonymous_args = 0
 899              		@ link register save eliminated.
 404:Drivers/GD32_F470_STD_Driver/Source/gd32f4xx_usart.c ****     USART_DATA(usart_periph) = ((uint16_t)USART_DATA_DATA & data);
 900              		.loc 1 404 5 view .LVU216
 901              		.loc 1 404 59 is_stmt 0 view .LVU217
 902 0000 C1F30801 		ubfx	r1, r1, #0, #9
 903              	.LVL97:
 904              		.loc 1 404 30 view .LVU218
 905 0004 4160     		str	r1, [r0, #4]
 405:Drivers/GD32_F470_STD_Driver/Source/gd32f4xx_usart.c **** }
 906              		.loc 1 405 1 view .LVU219
 907 0006 7047     		bx	lr
 908              		.cfi_endproc
 909              	.LFE132:
 911              		.section	.text.usart_data_receive,"ax",%progbits
 912              		.align	1
 913              		.global	usart_data_receive
 914              		.syntax unified
 915              		.thumb
 916              		.thumb_func
 918              	usart_data_receive:
 919              	.LVL98:
 920              	.LFB133:
 406:Drivers/GD32_F470_STD_Driver/Source/gd32f4xx_usart.c **** 
 407:Drivers/GD32_F470_STD_Driver/Source/gd32f4xx_usart.c **** /*!
 408:Drivers/GD32_F470_STD_Driver/Source/gd32f4xx_usart.c ****     \brief    USART receive data function
 409:Drivers/GD32_F470_STD_Driver/Source/gd32f4xx_usart.c ****     \param[in]  usart_periph: USARTx(x=0,1,2,5)/UARTx(x=3,4,6,7)
 410:Drivers/GD32_F470_STD_Driver/Source/gd32f4xx_usart.c ****     \param[out] none
 411:Drivers/GD32_F470_STD_Driver/Source/gd32f4xx_usart.c ****     \retval     data of received
 412:Drivers/GD32_F470_STD_Driver/Source/gd32f4xx_usart.c **** */
ARM GAS  /tmp/ccLXJ74X.s 			page 25


 413:Drivers/GD32_F470_STD_Driver/Source/gd32f4xx_usart.c **** uint16_t usart_data_receive(uint32_t usart_periph)
 414:Drivers/GD32_F470_STD_Driver/Source/gd32f4xx_usart.c **** {
 921              		.loc 1 414 1 is_stmt 1 view -0
 922              		.cfi_startproc
 923              		@ args = 0, pretend = 0, frame = 0
 924              		@ frame_needed = 0, uses_anonymous_args = 0
 925              		@ link register save eliminated.
 415:Drivers/GD32_F470_STD_Driver/Source/gd32f4xx_usart.c ****     return (uint16_t)(GET_BITS(USART_DATA(usart_periph), 0U, 8U));
 926              		.loc 1 415 5 view .LVU221
 927              		.loc 1 415 23 is_stmt 0 view .LVU222
 928 0000 4068     		ldr	r0, [r0, #4]
 929              	.LVL99:
 416:Drivers/GD32_F470_STD_Driver/Source/gd32f4xx_usart.c **** }
 930              		.loc 1 416 1 view .LVU223
 931 0002 C0F30800 		ubfx	r0, r0, #0, #9
 932 0006 7047     		bx	lr
 933              		.cfi_endproc
 934              	.LFE133:
 936              		.section	.text.usart_address_config,"ax",%progbits
 937              		.align	1
 938              		.global	usart_address_config
 939              		.syntax unified
 940              		.thumb
 941              		.thumb_func
 943              	usart_address_config:
 944              	.LVL100:
 945              	.LFB134:
 417:Drivers/GD32_F470_STD_Driver/Source/gd32f4xx_usart.c **** 
 418:Drivers/GD32_F470_STD_Driver/Source/gd32f4xx_usart.c **** /*!
 419:Drivers/GD32_F470_STD_Driver/Source/gd32f4xx_usart.c ****     \brief    configure the address of the USART in wake up by address match mode
 420:Drivers/GD32_F470_STD_Driver/Source/gd32f4xx_usart.c ****     \param[in]  usart_periph: USARTx(x=0,1,2,5)/UARTx(x=3,4,6,7)
 421:Drivers/GD32_F470_STD_Driver/Source/gd32f4xx_usart.c ****     \param[in]  addr: address of USART/UART
 422:Drivers/GD32_F470_STD_Driver/Source/gd32f4xx_usart.c ****     \param[out] none
 423:Drivers/GD32_F470_STD_Driver/Source/gd32f4xx_usart.c ****     \retval     none
 424:Drivers/GD32_F470_STD_Driver/Source/gd32f4xx_usart.c **** */
 425:Drivers/GD32_F470_STD_Driver/Source/gd32f4xx_usart.c **** void usart_address_config(uint32_t usart_periph, uint8_t addr)
 426:Drivers/GD32_F470_STD_Driver/Source/gd32f4xx_usart.c **** {
 946              		.loc 1 426 1 is_stmt 1 view -0
 947              		.cfi_startproc
 948              		@ args = 0, pretend = 0, frame = 0
 949              		@ frame_needed = 0, uses_anonymous_args = 0
 950              		@ link register save eliminated.
 427:Drivers/GD32_F470_STD_Driver/Source/gd32f4xx_usart.c ****     USART_CTL1(usart_periph) &= ~(USART_CTL1_ADDR);
 951              		.loc 1 427 5 view .LVU225
 952              		.loc 1 427 30 is_stmt 0 view .LVU226
 953 0000 0369     		ldr	r3, [r0, #16]
 954 0002 23F00F03 		bic	r3, r3, #15
 955 0006 0361     		str	r3, [r0, #16]
 428:Drivers/GD32_F470_STD_Driver/Source/gd32f4xx_usart.c ****     USART_CTL1(usart_periph) |= (USART_CTL1_ADDR & addr);
 956              		.loc 1 428 5 is_stmt 1 view .LVU227
 957              		.loc 1 428 30 is_stmt 0 view .LVU228
 958 0008 0369     		ldr	r3, [r0, #16]
 959              		.loc 1 428 50 view .LVU229
 960 000a 01F00F01 		and	r1, r1, #15
 961              	.LVL101:
 962              		.loc 1 428 30 view .LVU230
 963 000e 0B43     		orrs	r3, r3, r1
ARM GAS  /tmp/ccLXJ74X.s 			page 26


 964 0010 0361     		str	r3, [r0, #16]
 429:Drivers/GD32_F470_STD_Driver/Source/gd32f4xx_usart.c **** }
 965              		.loc 1 429 1 view .LVU231
 966 0012 7047     		bx	lr
 967              		.cfi_endproc
 968              	.LFE134:
 970              		.section	.text.usart_mute_mode_enable,"ax",%progbits
 971              		.align	1
 972              		.global	usart_mute_mode_enable
 973              		.syntax unified
 974              		.thumb
 975              		.thumb_func
 977              	usart_mute_mode_enable:
 978              	.LVL102:
 979              	.LFB135:
 430:Drivers/GD32_F470_STD_Driver/Source/gd32f4xx_usart.c **** 
 431:Drivers/GD32_F470_STD_Driver/Source/gd32f4xx_usart.c **** /*!
 432:Drivers/GD32_F470_STD_Driver/Source/gd32f4xx_usart.c ****     \brief    enable mute mode
 433:Drivers/GD32_F470_STD_Driver/Source/gd32f4xx_usart.c ****     \param[in]  usart_periph: USARTx(x=0,1,2,5)/UARTx(x=3,4,6,7)
 434:Drivers/GD32_F470_STD_Driver/Source/gd32f4xx_usart.c ****     \param[out] none
 435:Drivers/GD32_F470_STD_Driver/Source/gd32f4xx_usart.c ****     \retval     none
 436:Drivers/GD32_F470_STD_Driver/Source/gd32f4xx_usart.c **** */
 437:Drivers/GD32_F470_STD_Driver/Source/gd32f4xx_usart.c **** void usart_mute_mode_enable(uint32_t usart_periph)
 438:Drivers/GD32_F470_STD_Driver/Source/gd32f4xx_usart.c **** {
 980              		.loc 1 438 1 is_stmt 1 view -0
 981              		.cfi_startproc
 982              		@ args = 0, pretend = 0, frame = 0
 983              		@ frame_needed = 0, uses_anonymous_args = 0
 984              		@ link register save eliminated.
 439:Drivers/GD32_F470_STD_Driver/Source/gd32f4xx_usart.c ****     USART_CTL0(usart_periph) |= USART_CTL0_RWU;
 985              		.loc 1 439 5 view .LVU233
 986              		.loc 1 439 30 is_stmt 0 view .LVU234
 987 0000 C368     		ldr	r3, [r0, #12]
 988 0002 43F00203 		orr	r3, r3, #2
 989 0006 C360     		str	r3, [r0, #12]
 440:Drivers/GD32_F470_STD_Driver/Source/gd32f4xx_usart.c **** }
 990              		.loc 1 440 1 view .LVU235
 991 0008 7047     		bx	lr
 992              		.cfi_endproc
 993              	.LFE135:
 995              		.section	.text.usart_mute_mode_disable,"ax",%progbits
 996              		.align	1
 997              		.global	usart_mute_mode_disable
 998              		.syntax unified
 999              		.thumb
 1000              		.thumb_func
 1002              	usart_mute_mode_disable:
 1003              	.LVL103:
 1004              	.LFB136:
 441:Drivers/GD32_F470_STD_Driver/Source/gd32f4xx_usart.c **** 
 442:Drivers/GD32_F470_STD_Driver/Source/gd32f4xx_usart.c **** /*!
 443:Drivers/GD32_F470_STD_Driver/Source/gd32f4xx_usart.c ****     \brief    disable mute mode
 444:Drivers/GD32_F470_STD_Driver/Source/gd32f4xx_usart.c ****     \param[in]  usart_periph: USARTx(x=0,1,2,5)/UARTx(x=3,4,6,7)
 445:Drivers/GD32_F470_STD_Driver/Source/gd32f4xx_usart.c ****     \param[out] none
 446:Drivers/GD32_F470_STD_Driver/Source/gd32f4xx_usart.c ****     \retval     none
 447:Drivers/GD32_F470_STD_Driver/Source/gd32f4xx_usart.c **** */
 448:Drivers/GD32_F470_STD_Driver/Source/gd32f4xx_usart.c **** void usart_mute_mode_disable(uint32_t usart_periph)
ARM GAS  /tmp/ccLXJ74X.s 			page 27


 449:Drivers/GD32_F470_STD_Driver/Source/gd32f4xx_usart.c **** {
 1005              		.loc 1 449 1 is_stmt 1 view -0
 1006              		.cfi_startproc
 1007              		@ args = 0, pretend = 0, frame = 0
 1008              		@ frame_needed = 0, uses_anonymous_args = 0
 1009              		@ link register save eliminated.
 450:Drivers/GD32_F470_STD_Driver/Source/gd32f4xx_usart.c ****     USART_CTL0(usart_periph) &= ~(USART_CTL0_RWU);
 1010              		.loc 1 450 5 view .LVU237
 1011              		.loc 1 450 30 is_stmt 0 view .LVU238
 1012 0000 C368     		ldr	r3, [r0, #12]
 1013 0002 23F00203 		bic	r3, r3, #2
 1014 0006 C360     		str	r3, [r0, #12]
 451:Drivers/GD32_F470_STD_Driver/Source/gd32f4xx_usart.c **** }
 1015              		.loc 1 451 1 view .LVU239
 1016 0008 7047     		bx	lr
 1017              		.cfi_endproc
 1018              	.LFE136:
 1020              		.section	.text.usart_mute_mode_wakeup_config,"ax",%progbits
 1021              		.align	1
 1022              		.global	usart_mute_mode_wakeup_config
 1023              		.syntax unified
 1024              		.thumb
 1025              		.thumb_func
 1027              	usart_mute_mode_wakeup_config:
 1028              	.LVL104:
 1029              	.LFB137:
 452:Drivers/GD32_F470_STD_Driver/Source/gd32f4xx_usart.c **** 
 453:Drivers/GD32_F470_STD_Driver/Source/gd32f4xx_usart.c **** /*!
 454:Drivers/GD32_F470_STD_Driver/Source/gd32f4xx_usart.c ****     \brief    configure wakeup method in mute mode
 455:Drivers/GD32_F470_STD_Driver/Source/gd32f4xx_usart.c ****     \param[in]  usart_periph: USARTx(x=0,1,2,5)/UARTx(x=3,4,6,7)
 456:Drivers/GD32_F470_STD_Driver/Source/gd32f4xx_usart.c ****     \param[in]  wmehtod: two method be used to enter or exit the mute mode
 457:Drivers/GD32_F470_STD_Driver/Source/gd32f4xx_usart.c ****                 only one parameter can be selected which is shown as below:
 458:Drivers/GD32_F470_STD_Driver/Source/gd32f4xx_usart.c ****       \arg        USART_WM_IDLE: idle line
 459:Drivers/GD32_F470_STD_Driver/Source/gd32f4xx_usart.c ****       \arg        USART_WM_ADDR: address mask
 460:Drivers/GD32_F470_STD_Driver/Source/gd32f4xx_usart.c ****     \param[out] none
 461:Drivers/GD32_F470_STD_Driver/Source/gd32f4xx_usart.c ****     \retval     none
 462:Drivers/GD32_F470_STD_Driver/Source/gd32f4xx_usart.c **** */
 463:Drivers/GD32_F470_STD_Driver/Source/gd32f4xx_usart.c **** void usart_mute_mode_wakeup_config(uint32_t usart_periph, uint32_t wmehtod)
 464:Drivers/GD32_F470_STD_Driver/Source/gd32f4xx_usart.c **** {
 1030              		.loc 1 464 1 is_stmt 1 view -0
 1031              		.cfi_startproc
 1032              		@ args = 0, pretend = 0, frame = 0
 1033              		@ frame_needed = 0, uses_anonymous_args = 0
 1034              		@ link register save eliminated.
 465:Drivers/GD32_F470_STD_Driver/Source/gd32f4xx_usart.c ****     USART_CTL0(usart_periph) &= ~(USART_CTL0_WM);
 1035              		.loc 1 465 5 view .LVU241
 1036              		.loc 1 465 30 is_stmt 0 view .LVU242
 1037 0000 C268     		ldr	r2, [r0, #12]
 1038 0002 22F40062 		bic	r2, r2, #2048
 1039 0006 C260     		str	r2, [r0, #12]
 466:Drivers/GD32_F470_STD_Driver/Source/gd32f4xx_usart.c ****     USART_CTL0(usart_periph) |= wmehtod;
 1040              		.loc 1 466 5 is_stmt 1 view .LVU243
 1041              		.loc 1 466 30 is_stmt 0 view .LVU244
 1042 0008 C368     		ldr	r3, [r0, #12]
 1043 000a 0B43     		orrs	r3, r3, r1
 1044 000c C360     		str	r3, [r0, #12]
 467:Drivers/GD32_F470_STD_Driver/Source/gd32f4xx_usart.c **** }
ARM GAS  /tmp/ccLXJ74X.s 			page 28


 1045              		.loc 1 467 1 view .LVU245
 1046 000e 7047     		bx	lr
 1047              		.cfi_endproc
 1048              	.LFE137:
 1050              		.section	.text.usart_lin_mode_enable,"ax",%progbits
 1051              		.align	1
 1052              		.global	usart_lin_mode_enable
 1053              		.syntax unified
 1054              		.thumb
 1055              		.thumb_func
 1057              	usart_lin_mode_enable:
 1058              	.LVL105:
 1059              	.LFB138:
 468:Drivers/GD32_F470_STD_Driver/Source/gd32f4xx_usart.c **** 
 469:Drivers/GD32_F470_STD_Driver/Source/gd32f4xx_usart.c **** /*!
 470:Drivers/GD32_F470_STD_Driver/Source/gd32f4xx_usart.c ****     \brief    enable LIN mode
 471:Drivers/GD32_F470_STD_Driver/Source/gd32f4xx_usart.c ****     \param[in]  usart_periph: USARTx(x=0,1,2,5)/UARTx(x=3,4,6,7)
 472:Drivers/GD32_F470_STD_Driver/Source/gd32f4xx_usart.c ****     \param[out] none
 473:Drivers/GD32_F470_STD_Driver/Source/gd32f4xx_usart.c ****     \retval     none
 474:Drivers/GD32_F470_STD_Driver/Source/gd32f4xx_usart.c **** */
 475:Drivers/GD32_F470_STD_Driver/Source/gd32f4xx_usart.c **** void usart_lin_mode_enable(uint32_t usart_periph)
 476:Drivers/GD32_F470_STD_Driver/Source/gd32f4xx_usart.c **** {
 1060              		.loc 1 476 1 is_stmt 1 view -0
 1061              		.cfi_startproc
 1062              		@ args = 0, pretend = 0, frame = 0
 1063              		@ frame_needed = 0, uses_anonymous_args = 0
 1064              		@ link register save eliminated.
 477:Drivers/GD32_F470_STD_Driver/Source/gd32f4xx_usart.c ****     USART_CTL1(usart_periph) |= USART_CTL1_LMEN;
 1065              		.loc 1 477 5 view .LVU247
 1066              		.loc 1 477 30 is_stmt 0 view .LVU248
 1067 0000 0369     		ldr	r3, [r0, #16]
 1068 0002 43F48043 		orr	r3, r3, #16384
 1069 0006 0361     		str	r3, [r0, #16]
 478:Drivers/GD32_F470_STD_Driver/Source/gd32f4xx_usart.c **** }
 1070              		.loc 1 478 1 view .LVU249
 1071 0008 7047     		bx	lr
 1072              		.cfi_endproc
 1073              	.LFE138:
 1075              		.section	.text.usart_lin_mode_disable,"ax",%progbits
 1076              		.align	1
 1077              		.global	usart_lin_mode_disable
 1078              		.syntax unified
 1079              		.thumb
 1080              		.thumb_func
 1082              	usart_lin_mode_disable:
 1083              	.LVL106:
 1084              	.LFB139:
 479:Drivers/GD32_F470_STD_Driver/Source/gd32f4xx_usart.c **** 
 480:Drivers/GD32_F470_STD_Driver/Source/gd32f4xx_usart.c **** /*!
 481:Drivers/GD32_F470_STD_Driver/Source/gd32f4xx_usart.c ****     \brief    disable LIN mode
 482:Drivers/GD32_F470_STD_Driver/Source/gd32f4xx_usart.c ****     \param[in]  usart_periph: USARTx(x=0,1,2,5)/UARTx(x=3,4,6,7)
 483:Drivers/GD32_F470_STD_Driver/Source/gd32f4xx_usart.c ****     \param[out] none
 484:Drivers/GD32_F470_STD_Driver/Source/gd32f4xx_usart.c ****     \retval     none
 485:Drivers/GD32_F470_STD_Driver/Source/gd32f4xx_usart.c **** */
 486:Drivers/GD32_F470_STD_Driver/Source/gd32f4xx_usart.c **** void usart_lin_mode_disable(uint32_t usart_periph)
 487:Drivers/GD32_F470_STD_Driver/Source/gd32f4xx_usart.c **** {
 1085              		.loc 1 487 1 is_stmt 1 view -0
ARM GAS  /tmp/ccLXJ74X.s 			page 29


 1086              		.cfi_startproc
 1087              		@ args = 0, pretend = 0, frame = 0
 1088              		@ frame_needed = 0, uses_anonymous_args = 0
 1089              		@ link register save eliminated.
 488:Drivers/GD32_F470_STD_Driver/Source/gd32f4xx_usart.c ****     USART_CTL1(usart_periph) &= ~(USART_CTL1_LMEN);
 1090              		.loc 1 488 5 view .LVU251
 1091              		.loc 1 488 30 is_stmt 0 view .LVU252
 1092 0000 0369     		ldr	r3, [r0, #16]
 1093 0002 23F48043 		bic	r3, r3, #16384
 1094 0006 0361     		str	r3, [r0, #16]
 489:Drivers/GD32_F470_STD_Driver/Source/gd32f4xx_usart.c **** }
 1095              		.loc 1 489 1 view .LVU253
 1096 0008 7047     		bx	lr
 1097              		.cfi_endproc
 1098              	.LFE139:
 1100              		.section	.text.usart_lin_break_detection_length_config,"ax",%progbits
 1101              		.align	1
 1102              		.global	usart_lin_break_detection_length_config
 1103              		.syntax unified
 1104              		.thumb
 1105              		.thumb_func
 1107              	usart_lin_break_detection_length_config:
 1108              	.LVL107:
 1109              	.LFB140:
 490:Drivers/GD32_F470_STD_Driver/Source/gd32f4xx_usart.c **** 
 491:Drivers/GD32_F470_STD_Driver/Source/gd32f4xx_usart.c **** /*!
 492:Drivers/GD32_F470_STD_Driver/Source/gd32f4xx_usart.c ****     \brief    configure lin break frame length
 493:Drivers/GD32_F470_STD_Driver/Source/gd32f4xx_usart.c ****     \param[in]  usart_periph: USARTx(x=0,1,2,5)/UARTx(x=3,4,6,7)
 494:Drivers/GD32_F470_STD_Driver/Source/gd32f4xx_usart.c ****     \param[in]  lblen: lin break frame length
 495:Drivers/GD32_F470_STD_Driver/Source/gd32f4xx_usart.c ****                 only one parameter can be selected which is shown as below:
 496:Drivers/GD32_F470_STD_Driver/Source/gd32f4xx_usart.c ****       \arg        USART_LBLEN_10B: 10 bits
 497:Drivers/GD32_F470_STD_Driver/Source/gd32f4xx_usart.c ****       \arg        USART_LBLEN_11B: 11 bits
 498:Drivers/GD32_F470_STD_Driver/Source/gd32f4xx_usart.c ****     \param[out] none
 499:Drivers/GD32_F470_STD_Driver/Source/gd32f4xx_usart.c ****     \retval     none
 500:Drivers/GD32_F470_STD_Driver/Source/gd32f4xx_usart.c **** */
 501:Drivers/GD32_F470_STD_Driver/Source/gd32f4xx_usart.c **** void usart_lin_break_detection_length_config(uint32_t usart_periph, uint32_t lblen)
 502:Drivers/GD32_F470_STD_Driver/Source/gd32f4xx_usart.c **** {
 1110              		.loc 1 502 1 is_stmt 1 view -0
 1111              		.cfi_startproc
 1112              		@ args = 0, pretend = 0, frame = 0
 1113              		@ frame_needed = 0, uses_anonymous_args = 0
 1114              		@ link register save eliminated.
 503:Drivers/GD32_F470_STD_Driver/Source/gd32f4xx_usart.c ****     USART_CTL1(usart_periph) &= ~(USART_CTL1_LBLEN);
 1115              		.loc 1 503 5 view .LVU255
 1116              		.loc 1 503 30 is_stmt 0 view .LVU256
 1117 0000 0369     		ldr	r3, [r0, #16]
 1118 0002 23F02003 		bic	r3, r3, #32
 1119 0006 0361     		str	r3, [r0, #16]
 504:Drivers/GD32_F470_STD_Driver/Source/gd32f4xx_usart.c ****     USART_CTL1(usart_periph) |= (USART_CTL1_LBLEN & lblen);
 1120              		.loc 1 504 5 is_stmt 1 view .LVU257
 1121              		.loc 1 504 30 is_stmt 0 view .LVU258
 1122 0008 0369     		ldr	r3, [r0, #16]
 1123              		.loc 1 504 51 view .LVU259
 1124 000a 01F02001 		and	r1, r1, #32
 1125              	.LVL108:
 1126              		.loc 1 504 30 view .LVU260
 1127 000e 0B43     		orrs	r3, r3, r1
ARM GAS  /tmp/ccLXJ74X.s 			page 30


 1128 0010 0361     		str	r3, [r0, #16]
 505:Drivers/GD32_F470_STD_Driver/Source/gd32f4xx_usart.c **** }
 1129              		.loc 1 505 1 view .LVU261
 1130 0012 7047     		bx	lr
 1131              		.cfi_endproc
 1132              	.LFE140:
 1134              		.section	.text.usart_send_break,"ax",%progbits
 1135              		.align	1
 1136              		.global	usart_send_break
 1137              		.syntax unified
 1138              		.thumb
 1139              		.thumb_func
 1141              	usart_send_break:
 1142              	.LVL109:
 1143              	.LFB141:
 506:Drivers/GD32_F470_STD_Driver/Source/gd32f4xx_usart.c **** 
 507:Drivers/GD32_F470_STD_Driver/Source/gd32f4xx_usart.c **** /*!
 508:Drivers/GD32_F470_STD_Driver/Source/gd32f4xx_usart.c ****     \brief    send break frame
 509:Drivers/GD32_F470_STD_Driver/Source/gd32f4xx_usart.c ****     \param[in]  usart_periph: USARTx(x=0,1,2,5)/UARTx(x=3,4,6,7)
 510:Drivers/GD32_F470_STD_Driver/Source/gd32f4xx_usart.c ****     \param[out] none
 511:Drivers/GD32_F470_STD_Driver/Source/gd32f4xx_usart.c ****     \retval     none
 512:Drivers/GD32_F470_STD_Driver/Source/gd32f4xx_usart.c **** */
 513:Drivers/GD32_F470_STD_Driver/Source/gd32f4xx_usart.c **** void usart_send_break(uint32_t usart_periph)
 514:Drivers/GD32_F470_STD_Driver/Source/gd32f4xx_usart.c **** {
 1144              		.loc 1 514 1 is_stmt 1 view -0
 1145              		.cfi_startproc
 1146              		@ args = 0, pretend = 0, frame = 0
 1147              		@ frame_needed = 0, uses_anonymous_args = 0
 1148              		@ link register save eliminated.
 515:Drivers/GD32_F470_STD_Driver/Source/gd32f4xx_usart.c ****     USART_CTL0(usart_periph) |= USART_CTL0_SBKCMD;
 1149              		.loc 1 515 5 view .LVU263
 1150              		.loc 1 515 30 is_stmt 0 view .LVU264
 1151 0000 C368     		ldr	r3, [r0, #12]
 1152 0002 43F00103 		orr	r3, r3, #1
 1153 0006 C360     		str	r3, [r0, #12]
 516:Drivers/GD32_F470_STD_Driver/Source/gd32f4xx_usart.c **** }
 1154              		.loc 1 516 1 view .LVU265
 1155 0008 7047     		bx	lr
 1156              		.cfi_endproc
 1157              	.LFE141:
 1159              		.section	.text.usart_halfduplex_enable,"ax",%progbits
 1160              		.align	1
 1161              		.global	usart_halfduplex_enable
 1162              		.syntax unified
 1163              		.thumb
 1164              		.thumb_func
 1166              	usart_halfduplex_enable:
 1167              	.LVL110:
 1168              	.LFB142:
 517:Drivers/GD32_F470_STD_Driver/Source/gd32f4xx_usart.c **** 
 518:Drivers/GD32_F470_STD_Driver/Source/gd32f4xx_usart.c **** /*!
 519:Drivers/GD32_F470_STD_Driver/Source/gd32f4xx_usart.c ****     \brief    enable half duplex mode
 520:Drivers/GD32_F470_STD_Driver/Source/gd32f4xx_usart.c ****     \param[in]  usart_periph: USARTx(x=0,1,2,5)/UARTx(x=3,4,6,7)
 521:Drivers/GD32_F470_STD_Driver/Source/gd32f4xx_usart.c ****     \param[out] none
 522:Drivers/GD32_F470_STD_Driver/Source/gd32f4xx_usart.c ****     \retval     none
 523:Drivers/GD32_F470_STD_Driver/Source/gd32f4xx_usart.c **** */
 524:Drivers/GD32_F470_STD_Driver/Source/gd32f4xx_usart.c **** void usart_halfduplex_enable(uint32_t usart_periph)
ARM GAS  /tmp/ccLXJ74X.s 			page 31


 525:Drivers/GD32_F470_STD_Driver/Source/gd32f4xx_usart.c **** {
 1169              		.loc 1 525 1 is_stmt 1 view -0
 1170              		.cfi_startproc
 1171              		@ args = 0, pretend = 0, frame = 0
 1172              		@ frame_needed = 0, uses_anonymous_args = 0
 1173              		@ link register save eliminated.
 526:Drivers/GD32_F470_STD_Driver/Source/gd32f4xx_usart.c ****     USART_CTL2(usart_periph) |= USART_CTL2_HDEN;
 1174              		.loc 1 526 5 view .LVU267
 1175              		.loc 1 526 30 is_stmt 0 view .LVU268
 1176 0000 4369     		ldr	r3, [r0, #20]
 1177 0002 43F00803 		orr	r3, r3, #8
 1178 0006 4361     		str	r3, [r0, #20]
 527:Drivers/GD32_F470_STD_Driver/Source/gd32f4xx_usart.c **** }
 1179              		.loc 1 527 1 view .LVU269
 1180 0008 7047     		bx	lr
 1181              		.cfi_endproc
 1182              	.LFE142:
 1184              		.section	.text.usart_halfduplex_disable,"ax",%progbits
 1185              		.align	1
 1186              		.global	usart_halfduplex_disable
 1187              		.syntax unified
 1188              		.thumb
 1189              		.thumb_func
 1191              	usart_halfduplex_disable:
 1192              	.LVL111:
 1193              	.LFB143:
 528:Drivers/GD32_F470_STD_Driver/Source/gd32f4xx_usart.c **** 
 529:Drivers/GD32_F470_STD_Driver/Source/gd32f4xx_usart.c **** /*!
 530:Drivers/GD32_F470_STD_Driver/Source/gd32f4xx_usart.c ****     \brief    disable half duplex mode
 531:Drivers/GD32_F470_STD_Driver/Source/gd32f4xx_usart.c ****     \param[in]  usart_periph: USARTx(x=0,1,2,5)/UARTx(x=3,4,6,7)
 532:Drivers/GD32_F470_STD_Driver/Source/gd32f4xx_usart.c ****     \param[out] none
 533:Drivers/GD32_F470_STD_Driver/Source/gd32f4xx_usart.c ****     \retval     none
 534:Drivers/GD32_F470_STD_Driver/Source/gd32f4xx_usart.c **** */
 535:Drivers/GD32_F470_STD_Driver/Source/gd32f4xx_usart.c **** void usart_halfduplex_disable(uint32_t usart_periph)
 536:Drivers/GD32_F470_STD_Driver/Source/gd32f4xx_usart.c **** {
 1194              		.loc 1 536 1 is_stmt 1 view -0
 1195              		.cfi_startproc
 1196              		@ args = 0, pretend = 0, frame = 0
 1197              		@ frame_needed = 0, uses_anonymous_args = 0
 1198              		@ link register save eliminated.
 537:Drivers/GD32_F470_STD_Driver/Source/gd32f4xx_usart.c ****     USART_CTL2(usart_periph) &= ~(USART_CTL2_HDEN);
 1199              		.loc 1 537 5 view .LVU271
 1200              		.loc 1 537 30 is_stmt 0 view .LVU272
 1201 0000 4369     		ldr	r3, [r0, #20]
 1202 0002 23F00803 		bic	r3, r3, #8
 1203 0006 4361     		str	r3, [r0, #20]
 538:Drivers/GD32_F470_STD_Driver/Source/gd32f4xx_usart.c **** }
 1204              		.loc 1 538 1 view .LVU273
 1205 0008 7047     		bx	lr
 1206              		.cfi_endproc
 1207              	.LFE143:
 1209              		.section	.text.usart_synchronous_clock_enable,"ax",%progbits
 1210              		.align	1
 1211              		.global	usart_synchronous_clock_enable
 1212              		.syntax unified
 1213              		.thumb
 1214              		.thumb_func
ARM GAS  /tmp/ccLXJ74X.s 			page 32


 1216              	usart_synchronous_clock_enable:
 1217              	.LVL112:
 1218              	.LFB144:
 539:Drivers/GD32_F470_STD_Driver/Source/gd32f4xx_usart.c **** 
 540:Drivers/GD32_F470_STD_Driver/Source/gd32f4xx_usart.c **** /*!
 541:Drivers/GD32_F470_STD_Driver/Source/gd32f4xx_usart.c ****     \brief    enable CK pin in synchronous mode
 542:Drivers/GD32_F470_STD_Driver/Source/gd32f4xx_usart.c ****     \param[in]  usart_periph: USARTx(x=0,1,2,5)
 543:Drivers/GD32_F470_STD_Driver/Source/gd32f4xx_usart.c ****     \param[out] none
 544:Drivers/GD32_F470_STD_Driver/Source/gd32f4xx_usart.c ****     \retval     none
 545:Drivers/GD32_F470_STD_Driver/Source/gd32f4xx_usart.c **** */
 546:Drivers/GD32_F470_STD_Driver/Source/gd32f4xx_usart.c **** void usart_synchronous_clock_enable(uint32_t usart_periph)
 547:Drivers/GD32_F470_STD_Driver/Source/gd32f4xx_usart.c **** {
 1219              		.loc 1 547 1 is_stmt 1 view -0
 1220              		.cfi_startproc
 1221              		@ args = 0, pretend = 0, frame = 0
 1222              		@ frame_needed = 0, uses_anonymous_args = 0
 1223              		@ link register save eliminated.
 548:Drivers/GD32_F470_STD_Driver/Source/gd32f4xx_usart.c ****     USART_CTL1(usart_periph) |= USART_CTL1_CKEN;
 1224              		.loc 1 548 5 view .LVU275
 1225              		.loc 1 548 30 is_stmt 0 view .LVU276
 1226 0000 0369     		ldr	r3, [r0, #16]
 1227 0002 43F40063 		orr	r3, r3, #2048
 1228 0006 0361     		str	r3, [r0, #16]
 549:Drivers/GD32_F470_STD_Driver/Source/gd32f4xx_usart.c **** }
 1229              		.loc 1 549 1 view .LVU277
 1230 0008 7047     		bx	lr
 1231              		.cfi_endproc
 1232              	.LFE144:
 1234              		.section	.text.usart_synchronous_clock_disable,"ax",%progbits
 1235              		.align	1
 1236              		.global	usart_synchronous_clock_disable
 1237              		.syntax unified
 1238              		.thumb
 1239              		.thumb_func
 1241              	usart_synchronous_clock_disable:
 1242              	.LVL113:
 1243              	.LFB145:
 550:Drivers/GD32_F470_STD_Driver/Source/gd32f4xx_usart.c **** 
 551:Drivers/GD32_F470_STD_Driver/Source/gd32f4xx_usart.c **** /*!
 552:Drivers/GD32_F470_STD_Driver/Source/gd32f4xx_usart.c ****     \brief    disable CK pin in synchronous mode
 553:Drivers/GD32_F470_STD_Driver/Source/gd32f4xx_usart.c ****     \param[in]  usart_periph: USARTx(x=0,1,2,5)
 554:Drivers/GD32_F470_STD_Driver/Source/gd32f4xx_usart.c ****     \param[out] none
 555:Drivers/GD32_F470_STD_Driver/Source/gd32f4xx_usart.c ****     \retval     none
 556:Drivers/GD32_F470_STD_Driver/Source/gd32f4xx_usart.c **** */
 557:Drivers/GD32_F470_STD_Driver/Source/gd32f4xx_usart.c **** void usart_synchronous_clock_disable(uint32_t usart_periph)
 558:Drivers/GD32_F470_STD_Driver/Source/gd32f4xx_usart.c **** {
 1244              		.loc 1 558 1 is_stmt 1 view -0
 1245              		.cfi_startproc
 1246              		@ args = 0, pretend = 0, frame = 0
 1247              		@ frame_needed = 0, uses_anonymous_args = 0
 1248              		@ link register save eliminated.
 559:Drivers/GD32_F470_STD_Driver/Source/gd32f4xx_usart.c ****     USART_CTL1(usart_periph) &= ~(USART_CTL1_CKEN);
 1249              		.loc 1 559 5 view .LVU279
 1250              		.loc 1 559 30 is_stmt 0 view .LVU280
 1251 0000 0369     		ldr	r3, [r0, #16]
 1252 0002 23F40063 		bic	r3, r3, #2048
 1253 0006 0361     		str	r3, [r0, #16]
ARM GAS  /tmp/ccLXJ74X.s 			page 33


 560:Drivers/GD32_F470_STD_Driver/Source/gd32f4xx_usart.c **** }
 1254              		.loc 1 560 1 view .LVU281
 1255 0008 7047     		bx	lr
 1256              		.cfi_endproc
 1257              	.LFE145:
 1259              		.section	.text.usart_synchronous_clock_config,"ax",%progbits
 1260              		.align	1
 1261              		.global	usart_synchronous_clock_config
 1262              		.syntax unified
 1263              		.thumb
 1264              		.thumb_func
 1266              	usart_synchronous_clock_config:
 1267              	.LVL114:
 1268              	.LFB146:
 561:Drivers/GD32_F470_STD_Driver/Source/gd32f4xx_usart.c **** 
 562:Drivers/GD32_F470_STD_Driver/Source/gd32f4xx_usart.c **** /*!
 563:Drivers/GD32_F470_STD_Driver/Source/gd32f4xx_usart.c ****     \brief    configure USART synchronous mode parameters
 564:Drivers/GD32_F470_STD_Driver/Source/gd32f4xx_usart.c ****     \param[in]  usart_periph: USARTx(x=0,1,2,5)
 565:Drivers/GD32_F470_STD_Driver/Source/gd32f4xx_usart.c ****     \param[in]  clen: CK length
 566:Drivers/GD32_F470_STD_Driver/Source/gd32f4xx_usart.c ****                 only one parameter can be selected which is shown as below:
 567:Drivers/GD32_F470_STD_Driver/Source/gd32f4xx_usart.c ****       \arg        USART_CLEN_NONE: there are 7 CK pulses for an 8 bit frame and 8 CK pulses for a 9
 568:Drivers/GD32_F470_STD_Driver/Source/gd32f4xx_usart.c ****       \arg        USART_CLEN_EN:   there are 8 CK pulses for an 8 bit frame and 9 CK pulses for a 9
 569:Drivers/GD32_F470_STD_Driver/Source/gd32f4xx_usart.c ****     \param[in]  cph: clock phase
 570:Drivers/GD32_F470_STD_Driver/Source/gd32f4xx_usart.c ****                 only one parameter can be selected which is shown as below:
 571:Drivers/GD32_F470_STD_Driver/Source/gd32f4xx_usart.c ****       \arg        USART_CPH_1CK: first clock transition is the first data capture edge
 572:Drivers/GD32_F470_STD_Driver/Source/gd32f4xx_usart.c ****       \arg        USART_CPH_2CK: second clock transition is the first data capture edge
 573:Drivers/GD32_F470_STD_Driver/Source/gd32f4xx_usart.c ****     \param[in]  cpl: clock polarity
 574:Drivers/GD32_F470_STD_Driver/Source/gd32f4xx_usart.c ****                 only one parameter can be selected which is shown as below:
 575:Drivers/GD32_F470_STD_Driver/Source/gd32f4xx_usart.c ****       \arg        USART_CPL_LOW:  steady low value on CK pin
 576:Drivers/GD32_F470_STD_Driver/Source/gd32f4xx_usart.c ****       \arg        USART_CPL_HIGH: steady high value on CK pin
 577:Drivers/GD32_F470_STD_Driver/Source/gd32f4xx_usart.c ****     \param[out] none
 578:Drivers/GD32_F470_STD_Driver/Source/gd32f4xx_usart.c ****     \retval     none
 579:Drivers/GD32_F470_STD_Driver/Source/gd32f4xx_usart.c **** */
 580:Drivers/GD32_F470_STD_Driver/Source/gd32f4xx_usart.c **** void usart_synchronous_clock_config(uint32_t usart_periph, uint32_t clen, uint32_t cph, uint32_t cp
 581:Drivers/GD32_F470_STD_Driver/Source/gd32f4xx_usart.c **** {
 1269              		.loc 1 581 1 is_stmt 1 view -0
 1270              		.cfi_startproc
 1271              		@ args = 0, pretend = 0, frame = 0
 1272              		@ frame_needed = 0, uses_anonymous_args = 0
 1273              		@ link register save eliminated.
 1274              		.loc 1 581 1 is_stmt 0 view .LVU283
 1275 0000 10B4     		push	{r4}
 1276              	.LCFI2:
 1277              		.cfi_def_cfa_offset 4
 1278              		.cfi_offset 4, -4
 582:Drivers/GD32_F470_STD_Driver/Source/gd32f4xx_usart.c ****     uint32_t ctl = 0U;
 1279              		.loc 1 582 5 is_stmt 1 view .LVU284
 1280              	.LVL115:
 583:Drivers/GD32_F470_STD_Driver/Source/gd32f4xx_usart.c **** 
 584:Drivers/GD32_F470_STD_Driver/Source/gd32f4xx_usart.c ****     /* read USART_CTL1 register */
 585:Drivers/GD32_F470_STD_Driver/Source/gd32f4xx_usart.c ****     ctl = USART_CTL1(usart_periph);
 1281              		.loc 1 585 5 view .LVU285
 1282              		.loc 1 585 9 is_stmt 0 view .LVU286
 1283 0002 0469     		ldr	r4, [r0, #16]
 1284              	.LVL116:
 586:Drivers/GD32_F470_STD_Driver/Source/gd32f4xx_usart.c ****     ctl &= ~(USART_CTL1_CLEN | USART_CTL1_CPH | USART_CTL1_CPL);
 1285              		.loc 1 586 5 is_stmt 1 view .LVU287
ARM GAS  /tmp/ccLXJ74X.s 			page 34


 1286              		.loc 1 586 9 is_stmt 0 view .LVU288
 1287 0004 24F4E06C 		bic	ip, r4, #1792
 1288              	.LVL117:
 587:Drivers/GD32_F470_STD_Driver/Source/gd32f4xx_usart.c ****     /* set CK length, CK phase, CK polarity */
 588:Drivers/GD32_F470_STD_Driver/Source/gd32f4xx_usart.c ****     ctl |= (USART_CTL1_CLEN & clen) | (USART_CTL1_CPH & cph) | (USART_CTL1_CPL & cpl);
 1289              		.loc 1 588 5 is_stmt 1 view .LVU289
 1290              		.loc 1 588 29 is_stmt 0 view .LVU290
 1291 0008 01F48071 		and	r1, r1, #256
 1292              	.LVL118:
 1293              		.loc 1 588 55 view .LVU291
 1294 000c 02F40072 		and	r2, r2, #512
 1295              	.LVL119:
 1296              		.loc 1 588 37 view .LVU292
 1297 0010 1143     		orrs	r1, r1, r2
 1298              		.loc 1 588 80 view .LVU293
 1299 0012 03F48063 		and	r3, r3, #1024
 1300              	.LVL120:
 1301              		.loc 1 588 62 view .LVU294
 1302 0016 1943     		orrs	r1, r1, r3
 1303              		.loc 1 588 9 view .LVU295
 1304 0018 41EA0C01 		orr	r1, r1, ip
 1305              	.LVL121:
 589:Drivers/GD32_F470_STD_Driver/Source/gd32f4xx_usart.c **** 
 590:Drivers/GD32_F470_STD_Driver/Source/gd32f4xx_usart.c ****     USART_CTL1(usart_periph) = ctl;
 1306              		.loc 1 590 5 is_stmt 1 view .LVU296
 1307              		.loc 1 590 30 is_stmt 0 view .LVU297
 1308 001c 0161     		str	r1, [r0, #16]
 591:Drivers/GD32_F470_STD_Driver/Source/gd32f4xx_usart.c **** }
 1309              		.loc 1 591 1 view .LVU298
 1310 001e 5DF8044B 		ldr	r4, [sp], #4
 1311              	.LCFI3:
 1312              		.cfi_restore 4
 1313              		.cfi_def_cfa_offset 0
 1314 0022 7047     		bx	lr
 1315              		.cfi_endproc
 1316              	.LFE146:
 1318              		.section	.text.usart_guard_time_config,"ax",%progbits
 1319              		.align	1
 1320              		.global	usart_guard_time_config
 1321              		.syntax unified
 1322              		.thumb
 1323              		.thumb_func
 1325              	usart_guard_time_config:
 1326              	.LVL122:
 1327              	.LFB147:
 592:Drivers/GD32_F470_STD_Driver/Source/gd32f4xx_usart.c **** 
 593:Drivers/GD32_F470_STD_Driver/Source/gd32f4xx_usart.c **** /*!
 594:Drivers/GD32_F470_STD_Driver/Source/gd32f4xx_usart.c ****     \brief    configure guard time value in smartcard mode
 595:Drivers/GD32_F470_STD_Driver/Source/gd32f4xx_usart.c ****     \param[in]  usart_periph: USARTx(x=0,1,2,5)
 596:Drivers/GD32_F470_STD_Driver/Source/gd32f4xx_usart.c ****     \param[in]  guat: guard time value, 0-0xFF
 597:Drivers/GD32_F470_STD_Driver/Source/gd32f4xx_usart.c ****     \param[out] none
 598:Drivers/GD32_F470_STD_Driver/Source/gd32f4xx_usart.c ****     \retval     none
 599:Drivers/GD32_F470_STD_Driver/Source/gd32f4xx_usart.c **** */
 600:Drivers/GD32_F470_STD_Driver/Source/gd32f4xx_usart.c **** void usart_guard_time_config(uint32_t usart_periph, uint32_t guat)
 601:Drivers/GD32_F470_STD_Driver/Source/gd32f4xx_usart.c **** {
 1328              		.loc 1 601 1 is_stmt 1 view -0
 1329              		.cfi_startproc
ARM GAS  /tmp/ccLXJ74X.s 			page 35


 1330              		@ args = 0, pretend = 0, frame = 0
 1331              		@ frame_needed = 0, uses_anonymous_args = 0
 1332              		@ link register save eliminated.
 602:Drivers/GD32_F470_STD_Driver/Source/gd32f4xx_usart.c ****     USART_GP(usart_periph) &= ~(USART_GP_GUAT);
 1333              		.loc 1 602 5 view .LVU300
 1334              		.loc 1 602 28 is_stmt 0 view .LVU301
 1335 0000 8369     		ldr	r3, [r0, #24]
 1336 0002 23F47F43 		bic	r3, r3, #65280
 1337 0006 8361     		str	r3, [r0, #24]
 603:Drivers/GD32_F470_STD_Driver/Source/gd32f4xx_usart.c ****     USART_GP(usart_periph) |= (USART_GP_GUAT & ((guat) << GP_GUAT_OFFSET));
 1338              		.loc 1 603 5 is_stmt 1 view .LVU302
 1339              		.loc 1 603 28 is_stmt 0 view .LVU303
 1340 0008 8369     		ldr	r3, [r0, #24]
 1341              		.loc 1 603 56 view .LVU304
 1342 000a 0902     		lsls	r1, r1, #8
 1343              	.LVL123:
 1344              		.loc 1 603 46 view .LVU305
 1345 000c 89B2     		uxth	r1, r1
 1346              		.loc 1 603 28 view .LVU306
 1347 000e 1943     		orrs	r1, r1, r3
 1348 0010 8161     		str	r1, [r0, #24]
 604:Drivers/GD32_F470_STD_Driver/Source/gd32f4xx_usart.c **** }
 1349              		.loc 1 604 1 view .LVU307
 1350 0012 7047     		bx	lr
 1351              		.cfi_endproc
 1352              	.LFE147:
 1354              		.section	.text.usart_smartcard_mode_enable,"ax",%progbits
 1355              		.align	1
 1356              		.global	usart_smartcard_mode_enable
 1357              		.syntax unified
 1358              		.thumb
 1359              		.thumb_func
 1361              	usart_smartcard_mode_enable:
 1362              	.LVL124:
 1363              	.LFB148:
 605:Drivers/GD32_F470_STD_Driver/Source/gd32f4xx_usart.c **** 
 606:Drivers/GD32_F470_STD_Driver/Source/gd32f4xx_usart.c **** /*!
 607:Drivers/GD32_F470_STD_Driver/Source/gd32f4xx_usart.c ****     \brief    enable smartcard mode
 608:Drivers/GD32_F470_STD_Driver/Source/gd32f4xx_usart.c ****     \param[in]  usart_periph: USARTx(x=0,1,2,5)
 609:Drivers/GD32_F470_STD_Driver/Source/gd32f4xx_usart.c ****     \param[out] none
 610:Drivers/GD32_F470_STD_Driver/Source/gd32f4xx_usart.c ****     \retval     none
 611:Drivers/GD32_F470_STD_Driver/Source/gd32f4xx_usart.c **** */
 612:Drivers/GD32_F470_STD_Driver/Source/gd32f4xx_usart.c **** void usart_smartcard_mode_enable(uint32_t usart_periph)
 613:Drivers/GD32_F470_STD_Driver/Source/gd32f4xx_usart.c **** {
 1364              		.loc 1 613 1 is_stmt 1 view -0
 1365              		.cfi_startproc
 1366              		@ args = 0, pretend = 0, frame = 0
 1367              		@ frame_needed = 0, uses_anonymous_args = 0
 1368              		@ link register save eliminated.
 614:Drivers/GD32_F470_STD_Driver/Source/gd32f4xx_usart.c ****     USART_CTL2(usart_periph) |= USART_CTL2_SCEN;
 1369              		.loc 1 614 5 view .LVU309
 1370              		.loc 1 614 30 is_stmt 0 view .LVU310
 1371 0000 4369     		ldr	r3, [r0, #20]
 1372 0002 43F02003 		orr	r3, r3, #32
 1373 0006 4361     		str	r3, [r0, #20]
 615:Drivers/GD32_F470_STD_Driver/Source/gd32f4xx_usart.c **** }
 1374              		.loc 1 615 1 view .LVU311
ARM GAS  /tmp/ccLXJ74X.s 			page 36


 1375 0008 7047     		bx	lr
 1376              		.cfi_endproc
 1377              	.LFE148:
 1379              		.section	.text.usart_smartcard_mode_disable,"ax",%progbits
 1380              		.align	1
 1381              		.global	usart_smartcard_mode_disable
 1382              		.syntax unified
 1383              		.thumb
 1384              		.thumb_func
 1386              	usart_smartcard_mode_disable:
 1387              	.LVL125:
 1388              	.LFB149:
 616:Drivers/GD32_F470_STD_Driver/Source/gd32f4xx_usart.c **** 
 617:Drivers/GD32_F470_STD_Driver/Source/gd32f4xx_usart.c **** /*!
 618:Drivers/GD32_F470_STD_Driver/Source/gd32f4xx_usart.c ****     \brief    disable smartcard mode
 619:Drivers/GD32_F470_STD_Driver/Source/gd32f4xx_usart.c ****     \param[in]  usart_periph: USARTx(x=0,1,2,5)
 620:Drivers/GD32_F470_STD_Driver/Source/gd32f4xx_usart.c ****     \param[out] none
 621:Drivers/GD32_F470_STD_Driver/Source/gd32f4xx_usart.c ****     \retval     none
 622:Drivers/GD32_F470_STD_Driver/Source/gd32f4xx_usart.c **** */
 623:Drivers/GD32_F470_STD_Driver/Source/gd32f4xx_usart.c **** void usart_smartcard_mode_disable(uint32_t usart_periph)
 624:Drivers/GD32_F470_STD_Driver/Source/gd32f4xx_usart.c **** {
 1389              		.loc 1 624 1 is_stmt 1 view -0
 1390              		.cfi_startproc
 1391              		@ args = 0, pretend = 0, frame = 0
 1392              		@ frame_needed = 0, uses_anonymous_args = 0
 1393              		@ link register save eliminated.
 625:Drivers/GD32_F470_STD_Driver/Source/gd32f4xx_usart.c ****     USART_CTL2(usart_periph) &= ~(USART_CTL2_SCEN);
 1394              		.loc 1 625 5 view .LVU313
 1395              		.loc 1 625 30 is_stmt 0 view .LVU314
 1396 0000 4369     		ldr	r3, [r0, #20]
 1397 0002 23F02003 		bic	r3, r3, #32
 1398 0006 4361     		str	r3, [r0, #20]
 626:Drivers/GD32_F470_STD_Driver/Source/gd32f4xx_usart.c **** }
 1399              		.loc 1 626 1 view .LVU315
 1400 0008 7047     		bx	lr
 1401              		.cfi_endproc
 1402              	.LFE149:
 1404              		.section	.text.usart_smartcard_mode_nack_enable,"ax",%progbits
 1405              		.align	1
 1406              		.global	usart_smartcard_mode_nack_enable
 1407              		.syntax unified
 1408              		.thumb
 1409              		.thumb_func
 1411              	usart_smartcard_mode_nack_enable:
 1412              	.LVL126:
 1413              	.LFB150:
 627:Drivers/GD32_F470_STD_Driver/Source/gd32f4xx_usart.c **** 
 628:Drivers/GD32_F470_STD_Driver/Source/gd32f4xx_usart.c **** /*!
 629:Drivers/GD32_F470_STD_Driver/Source/gd32f4xx_usart.c ****     \brief    enable NACK in smartcard mode
 630:Drivers/GD32_F470_STD_Driver/Source/gd32f4xx_usart.c ****     \param[in]  usart_periph: USARTx(x=0,1,2,5)
 631:Drivers/GD32_F470_STD_Driver/Source/gd32f4xx_usart.c ****     \param[out] none
 632:Drivers/GD32_F470_STD_Driver/Source/gd32f4xx_usart.c ****     \retval     none
 633:Drivers/GD32_F470_STD_Driver/Source/gd32f4xx_usart.c **** */
 634:Drivers/GD32_F470_STD_Driver/Source/gd32f4xx_usart.c **** void usart_smartcard_mode_nack_enable(uint32_t usart_periph)
 635:Drivers/GD32_F470_STD_Driver/Source/gd32f4xx_usart.c **** {
 1414              		.loc 1 635 1 is_stmt 1 view -0
 1415              		.cfi_startproc
ARM GAS  /tmp/ccLXJ74X.s 			page 37


 1416              		@ args = 0, pretend = 0, frame = 0
 1417              		@ frame_needed = 0, uses_anonymous_args = 0
 1418              		@ link register save eliminated.
 636:Drivers/GD32_F470_STD_Driver/Source/gd32f4xx_usart.c ****     USART_CTL2(usart_periph) |= USART_CTL2_NKEN;
 1419              		.loc 1 636 5 view .LVU317
 1420              		.loc 1 636 30 is_stmt 0 view .LVU318
 1421 0000 4369     		ldr	r3, [r0, #20]
 1422 0002 43F01003 		orr	r3, r3, #16
 1423 0006 4361     		str	r3, [r0, #20]
 637:Drivers/GD32_F470_STD_Driver/Source/gd32f4xx_usart.c **** }
 1424              		.loc 1 637 1 view .LVU319
 1425 0008 7047     		bx	lr
 1426              		.cfi_endproc
 1427              	.LFE150:
 1429              		.section	.text.usart_smartcard_mode_nack_disable,"ax",%progbits
 1430              		.align	1
 1431              		.global	usart_smartcard_mode_nack_disable
 1432              		.syntax unified
 1433              		.thumb
 1434              		.thumb_func
 1436              	usart_smartcard_mode_nack_disable:
 1437              	.LVL127:
 1438              	.LFB151:
 638:Drivers/GD32_F470_STD_Driver/Source/gd32f4xx_usart.c **** 
 639:Drivers/GD32_F470_STD_Driver/Source/gd32f4xx_usart.c **** /*!
 640:Drivers/GD32_F470_STD_Driver/Source/gd32f4xx_usart.c ****     \brief    disable NACK in smartcard mode
 641:Drivers/GD32_F470_STD_Driver/Source/gd32f4xx_usart.c ****     \param[in]  usart_periph: USARTx(x=0,1,2,5)
 642:Drivers/GD32_F470_STD_Driver/Source/gd32f4xx_usart.c ****     \param[out] none
 643:Drivers/GD32_F470_STD_Driver/Source/gd32f4xx_usart.c ****     \retval     none
 644:Drivers/GD32_F470_STD_Driver/Source/gd32f4xx_usart.c **** */
 645:Drivers/GD32_F470_STD_Driver/Source/gd32f4xx_usart.c **** void usart_smartcard_mode_nack_disable(uint32_t usart_periph)
 646:Drivers/GD32_F470_STD_Driver/Source/gd32f4xx_usart.c **** {
 1439              		.loc 1 646 1 is_stmt 1 view -0
 1440              		.cfi_startproc
 1441              		@ args = 0, pretend = 0, frame = 0
 1442              		@ frame_needed = 0, uses_anonymous_args = 0
 1443              		@ link register save eliminated.
 647:Drivers/GD32_F470_STD_Driver/Source/gd32f4xx_usart.c ****     USART_CTL2(usart_periph) &= ~(USART_CTL2_NKEN);
 1444              		.loc 1 647 5 view .LVU321
 1445              		.loc 1 647 30 is_stmt 0 view .LVU322
 1446 0000 4369     		ldr	r3, [r0, #20]
 1447 0002 23F01003 		bic	r3, r3, #16
 1448 0006 4361     		str	r3, [r0, #20]
 648:Drivers/GD32_F470_STD_Driver/Source/gd32f4xx_usart.c **** }
 1449              		.loc 1 648 1 view .LVU323
 1450 0008 7047     		bx	lr
 1451              		.cfi_endproc
 1452              	.LFE151:
 1454              		.section	.text.usart_smartcard_autoretry_config,"ax",%progbits
 1455              		.align	1
 1456              		.global	usart_smartcard_autoretry_config
 1457              		.syntax unified
 1458              		.thumb
 1459              		.thumb_func
 1461              	usart_smartcard_autoretry_config:
 1462              	.LVL128:
 1463              	.LFB152:
ARM GAS  /tmp/ccLXJ74X.s 			page 38


 649:Drivers/GD32_F470_STD_Driver/Source/gd32f4xx_usart.c **** 
 650:Drivers/GD32_F470_STD_Driver/Source/gd32f4xx_usart.c **** /*!
 651:Drivers/GD32_F470_STD_Driver/Source/gd32f4xx_usart.c ****     \brief    configure smartcard auto-retry number
 652:Drivers/GD32_F470_STD_Driver/Source/gd32f4xx_usart.c ****     \param[in]  usart_periph: USARTx(x=0,1,2,5)
 653:Drivers/GD32_F470_STD_Driver/Source/gd32f4xx_usart.c ****     \param[in]  scrtnum: smartcard auto-retry number
 654:Drivers/GD32_F470_STD_Driver/Source/gd32f4xx_usart.c ****     \param[out] none
 655:Drivers/GD32_F470_STD_Driver/Source/gd32f4xx_usart.c ****     \retval     none
 656:Drivers/GD32_F470_STD_Driver/Source/gd32f4xx_usart.c **** */
 657:Drivers/GD32_F470_STD_Driver/Source/gd32f4xx_usart.c **** void usart_smartcard_autoretry_config(uint32_t usart_periph, uint32_t scrtnum)
 658:Drivers/GD32_F470_STD_Driver/Source/gd32f4xx_usart.c **** {
 1464              		.loc 1 658 1 is_stmt 1 view -0
 1465              		.cfi_startproc
 1466              		@ args = 0, pretend = 0, frame = 0
 1467              		@ frame_needed = 0, uses_anonymous_args = 0
 1468              		@ link register save eliminated.
 659:Drivers/GD32_F470_STD_Driver/Source/gd32f4xx_usart.c ****     USART_CTL3(usart_periph) &= ~(USART_CTL3_SCRTNUM);
 1469              		.loc 1 659 5 view .LVU325
 1470              		.loc 1 659 30 is_stmt 0 view .LVU326
 1471 0000 D0F88030 		ldr	r3, [r0, #128]
 1472 0004 23F00E03 		bic	r3, r3, #14
 1473 0008 C0F88030 		str	r3, [r0, #128]
 660:Drivers/GD32_F470_STD_Driver/Source/gd32f4xx_usart.c ****     USART_CTL3(usart_periph) |= (USART_CTL3_SCRTNUM & ((scrtnum) << CTL3_SCRTNUM_OFFSET));
 1474              		.loc 1 660 5 is_stmt 1 view .LVU327
 1475              		.loc 1 660 30 is_stmt 0 view .LVU328
 1476 000c D0F88030 		ldr	r3, [r0, #128]
 1477              		.loc 1 660 66 view .LVU329
 1478 0010 4900     		lsls	r1, r1, #1
 1479              	.LVL129:
 1480              		.loc 1 660 53 view .LVU330
 1481 0012 01F00E01 		and	r1, r1, #14
 1482              		.loc 1 660 30 view .LVU331
 1483 0016 1943     		orrs	r1, r1, r3
 1484 0018 C0F88010 		str	r1, [r0, #128]
 661:Drivers/GD32_F470_STD_Driver/Source/gd32f4xx_usart.c **** }
 1485              		.loc 1 661 1 view .LVU332
 1486 001c 7047     		bx	lr
 1487              		.cfi_endproc
 1488              	.LFE152:
 1490              		.section	.text.usart_block_length_config,"ax",%progbits
 1491              		.align	1
 1492              		.global	usart_block_length_config
 1493              		.syntax unified
 1494              		.thumb
 1495              		.thumb_func
 1497              	usart_block_length_config:
 1498              	.LVL130:
 1499              	.LFB153:
 662:Drivers/GD32_F470_STD_Driver/Source/gd32f4xx_usart.c **** 
 663:Drivers/GD32_F470_STD_Driver/Source/gd32f4xx_usart.c **** /*!
 664:Drivers/GD32_F470_STD_Driver/Source/gd32f4xx_usart.c ****     \brief    configure block length in Smartcard T=1 reception
 665:Drivers/GD32_F470_STD_Driver/Source/gd32f4xx_usart.c ****     \param[in]  usart_periph: USARTx(x=0,1,2,5)
 666:Drivers/GD32_F470_STD_Driver/Source/gd32f4xx_usart.c ****     \param[in]  bl: block length
 667:Drivers/GD32_F470_STD_Driver/Source/gd32f4xx_usart.c ****     \param[out] none
 668:Drivers/GD32_F470_STD_Driver/Source/gd32f4xx_usart.c ****     \retval     none
 669:Drivers/GD32_F470_STD_Driver/Source/gd32f4xx_usart.c **** */
 670:Drivers/GD32_F470_STD_Driver/Source/gd32f4xx_usart.c **** void usart_block_length_config(uint32_t usart_periph, uint32_t bl)
 671:Drivers/GD32_F470_STD_Driver/Source/gd32f4xx_usart.c **** {
ARM GAS  /tmp/ccLXJ74X.s 			page 39


 1500              		.loc 1 671 1 is_stmt 1 view -0
 1501              		.cfi_startproc
 1502              		@ args = 0, pretend = 0, frame = 0
 1503              		@ frame_needed = 0, uses_anonymous_args = 0
 1504              		@ link register save eliminated.
 672:Drivers/GD32_F470_STD_Driver/Source/gd32f4xx_usart.c ****     USART_RT(usart_periph) &= ~(USART_RT_BL);
 1505              		.loc 1 672 5 view .LVU334
 1506              		.loc 1 672 28 is_stmt 0 view .LVU335
 1507 0000 D0F88420 		ldr	r2, [r0, #132]
 1508 0004 22F07F42 		bic	r2, r2, #-16777216
 1509 0008 C0F88420 		str	r2, [r0, #132]
 673:Drivers/GD32_F470_STD_Driver/Source/gd32f4xx_usart.c ****     USART_RT(usart_periph) |= (USART_RT_BL & ((bl) << RT_BL_OFFSET));
 1510              		.loc 1 673 5 is_stmt 1 view .LVU336
 1511              		.loc 1 673 28 is_stmt 0 view .LVU337
 1512 000c D0F88430 		ldr	r3, [r0, #132]
 1513 0010 43EA0163 		orr	r3, r3, r1, lsl #24
 1514 0014 C0F88430 		str	r3, [r0, #132]
 674:Drivers/GD32_F470_STD_Driver/Source/gd32f4xx_usart.c **** }
 1515              		.loc 1 674 1 view .LVU338
 1516 0018 7047     		bx	lr
 1517              		.cfi_endproc
 1518              	.LFE153:
 1520              		.section	.text.usart_irda_mode_enable,"ax",%progbits
 1521              		.align	1
 1522              		.global	usart_irda_mode_enable
 1523              		.syntax unified
 1524              		.thumb
 1525              		.thumb_func
 1527              	usart_irda_mode_enable:
 1528              	.LVL131:
 1529              	.LFB154:
 675:Drivers/GD32_F470_STD_Driver/Source/gd32f4xx_usart.c **** 
 676:Drivers/GD32_F470_STD_Driver/Source/gd32f4xx_usart.c **** /*!
 677:Drivers/GD32_F470_STD_Driver/Source/gd32f4xx_usart.c ****     \brief    enable IrDA mode
 678:Drivers/GD32_F470_STD_Driver/Source/gd32f4xx_usart.c ****     \param[in]  usart_periph: USARTx(x=0,1,2,5)/UARTx(x=3,4,6,7)
 679:Drivers/GD32_F470_STD_Driver/Source/gd32f4xx_usart.c ****     \param[out] none
 680:Drivers/GD32_F470_STD_Driver/Source/gd32f4xx_usart.c ****     \retval     none
 681:Drivers/GD32_F470_STD_Driver/Source/gd32f4xx_usart.c **** */
 682:Drivers/GD32_F470_STD_Driver/Source/gd32f4xx_usart.c **** void usart_irda_mode_enable(uint32_t usart_periph)
 683:Drivers/GD32_F470_STD_Driver/Source/gd32f4xx_usart.c **** {
 1530              		.loc 1 683 1 is_stmt 1 view -0
 1531              		.cfi_startproc
 1532              		@ args = 0, pretend = 0, frame = 0
 1533              		@ frame_needed = 0, uses_anonymous_args = 0
 1534              		@ link register save eliminated.
 684:Drivers/GD32_F470_STD_Driver/Source/gd32f4xx_usart.c ****     USART_CTL2(usart_periph) |= USART_CTL2_IREN;
 1535              		.loc 1 684 5 view .LVU340
 1536              		.loc 1 684 30 is_stmt 0 view .LVU341
 1537 0000 4369     		ldr	r3, [r0, #20]
 1538 0002 43F00203 		orr	r3, r3, #2
 1539 0006 4361     		str	r3, [r0, #20]
 685:Drivers/GD32_F470_STD_Driver/Source/gd32f4xx_usart.c **** }
 1540              		.loc 1 685 1 view .LVU342
 1541 0008 7047     		bx	lr
 1542              		.cfi_endproc
 1543              	.LFE154:
 1545              		.section	.text.usart_irda_mode_disable,"ax",%progbits
ARM GAS  /tmp/ccLXJ74X.s 			page 40


 1546              		.align	1
 1547              		.global	usart_irda_mode_disable
 1548              		.syntax unified
 1549              		.thumb
 1550              		.thumb_func
 1552              	usart_irda_mode_disable:
 1553              	.LVL132:
 1554              	.LFB155:
 686:Drivers/GD32_F470_STD_Driver/Source/gd32f4xx_usart.c **** 
 687:Drivers/GD32_F470_STD_Driver/Source/gd32f4xx_usart.c **** /*!
 688:Drivers/GD32_F470_STD_Driver/Source/gd32f4xx_usart.c ****     \brief    disable IrDA mode
 689:Drivers/GD32_F470_STD_Driver/Source/gd32f4xx_usart.c ****     \param[in]  usart_periph: USARTx(x=0,1,2,5)/UARTx(x=3,4,6,7)
 690:Drivers/GD32_F470_STD_Driver/Source/gd32f4xx_usart.c ****     \param[out] none
 691:Drivers/GD32_F470_STD_Driver/Source/gd32f4xx_usart.c ****     \retval     none
 692:Drivers/GD32_F470_STD_Driver/Source/gd32f4xx_usart.c **** */
 693:Drivers/GD32_F470_STD_Driver/Source/gd32f4xx_usart.c **** void usart_irda_mode_disable(uint32_t usart_periph)
 694:Drivers/GD32_F470_STD_Driver/Source/gd32f4xx_usart.c **** {
 1555              		.loc 1 694 1 is_stmt 1 view -0
 1556              		.cfi_startproc
 1557              		@ args = 0, pretend = 0, frame = 0
 1558              		@ frame_needed = 0, uses_anonymous_args = 0
 1559              		@ link register save eliminated.
 695:Drivers/GD32_F470_STD_Driver/Source/gd32f4xx_usart.c ****     USART_CTL2(usart_periph) &= ~(USART_CTL2_IREN);
 1560              		.loc 1 695 5 view .LVU344
 1561              		.loc 1 695 30 is_stmt 0 view .LVU345
 1562 0000 4369     		ldr	r3, [r0, #20]
 1563 0002 23F00203 		bic	r3, r3, #2
 1564 0006 4361     		str	r3, [r0, #20]
 696:Drivers/GD32_F470_STD_Driver/Source/gd32f4xx_usart.c **** }
 1565              		.loc 1 696 1 view .LVU346
 1566 0008 7047     		bx	lr
 1567              		.cfi_endproc
 1568              	.LFE155:
 1570              		.section	.text.usart_prescaler_config,"ax",%progbits
 1571              		.align	1
 1572              		.global	usart_prescaler_config
 1573              		.syntax unified
 1574              		.thumb
 1575              		.thumb_func
 1577              	usart_prescaler_config:
 1578              	.LVL133:
 1579              	.LFB156:
 697:Drivers/GD32_F470_STD_Driver/Source/gd32f4xx_usart.c **** 
 698:Drivers/GD32_F470_STD_Driver/Source/gd32f4xx_usart.c **** /*!
 699:Drivers/GD32_F470_STD_Driver/Source/gd32f4xx_usart.c ****     \brief    configure the peripheral clock prescaler in USART IrDA low-power mode
 700:Drivers/GD32_F470_STD_Driver/Source/gd32f4xx_usart.c ****     \param[in]  usart_periph: USARTx(x=0,1,2,5)/UARTx(x=3,4,6,7)
 701:Drivers/GD32_F470_STD_Driver/Source/gd32f4xx_usart.c ****     \param[in]  psc: 0-0xFF
 702:Drivers/GD32_F470_STD_Driver/Source/gd32f4xx_usart.c ****     \param[out] none
 703:Drivers/GD32_F470_STD_Driver/Source/gd32f4xx_usart.c ****     \retval     none
 704:Drivers/GD32_F470_STD_Driver/Source/gd32f4xx_usart.c **** */
 705:Drivers/GD32_F470_STD_Driver/Source/gd32f4xx_usart.c **** void usart_prescaler_config(uint32_t usart_periph, uint8_t psc)
 706:Drivers/GD32_F470_STD_Driver/Source/gd32f4xx_usart.c **** {
 1580              		.loc 1 706 1 is_stmt 1 view -0
 1581              		.cfi_startproc
 1582              		@ args = 0, pretend = 0, frame = 0
 1583              		@ frame_needed = 0, uses_anonymous_args = 0
 1584              		@ link register save eliminated.
ARM GAS  /tmp/ccLXJ74X.s 			page 41


 707:Drivers/GD32_F470_STD_Driver/Source/gd32f4xx_usart.c ****     USART_GP(usart_periph) &= ~(USART_GP_PSC);
 1585              		.loc 1 707 5 view .LVU348
 1586              		.loc 1 707 28 is_stmt 0 view .LVU349
 1587 0000 8369     		ldr	r3, [r0, #24]
 1588 0002 23F0FF03 		bic	r3, r3, #255
 1589 0006 8361     		str	r3, [r0, #24]
 708:Drivers/GD32_F470_STD_Driver/Source/gd32f4xx_usart.c ****     USART_GP(usart_periph) |= psc;
 1590              		.loc 1 708 5 is_stmt 1 view .LVU350
 1591              		.loc 1 708 28 is_stmt 0 view .LVU351
 1592 0008 8369     		ldr	r3, [r0, #24]
 1593 000a 1943     		orrs	r1, r1, r3
 1594              	.LVL134:
 1595              		.loc 1 708 28 view .LVU352
 1596 000c 8161     		str	r1, [r0, #24]
 709:Drivers/GD32_F470_STD_Driver/Source/gd32f4xx_usart.c **** }
 1597              		.loc 1 709 1 view .LVU353
 1598 000e 7047     		bx	lr
 1599              		.cfi_endproc
 1600              	.LFE156:
 1602              		.section	.text.usart_irda_lowpower_config,"ax",%progbits
 1603              		.align	1
 1604              		.global	usart_irda_lowpower_config
 1605              		.syntax unified
 1606              		.thumb
 1607              		.thumb_func
 1609              	usart_irda_lowpower_config:
 1610              	.LVL135:
 1611              	.LFB157:
 710:Drivers/GD32_F470_STD_Driver/Source/gd32f4xx_usart.c **** 
 711:Drivers/GD32_F470_STD_Driver/Source/gd32f4xx_usart.c **** /*!
 712:Drivers/GD32_F470_STD_Driver/Source/gd32f4xx_usart.c ****     \brief    configure IrDA low-power
 713:Drivers/GD32_F470_STD_Driver/Source/gd32f4xx_usart.c ****     \param[in]  usart_periph: USARTx(x=0,1,2,5)/UARTx(x=3,4,6,7)
 714:Drivers/GD32_F470_STD_Driver/Source/gd32f4xx_usart.c ****     \param[in]  irlp: IrDA low-power or normal
 715:Drivers/GD32_F470_STD_Driver/Source/gd32f4xx_usart.c ****                 only one parameter can be selected which is shown as below:
 716:Drivers/GD32_F470_STD_Driver/Source/gd32f4xx_usart.c ****       \arg        USART_IRLP_LOW: low-power
 717:Drivers/GD32_F470_STD_Driver/Source/gd32f4xx_usart.c ****       \arg        USART_IRLP_NORMAL: normal
 718:Drivers/GD32_F470_STD_Driver/Source/gd32f4xx_usart.c ****     \param[out] none
 719:Drivers/GD32_F470_STD_Driver/Source/gd32f4xx_usart.c ****     \retval     none
 720:Drivers/GD32_F470_STD_Driver/Source/gd32f4xx_usart.c **** */
 721:Drivers/GD32_F470_STD_Driver/Source/gd32f4xx_usart.c **** void usart_irda_lowpower_config(uint32_t usart_periph, uint32_t irlp)
 722:Drivers/GD32_F470_STD_Driver/Source/gd32f4xx_usart.c **** {
 1612              		.loc 1 722 1 is_stmt 1 view -0
 1613              		.cfi_startproc
 1614              		@ args = 0, pretend = 0, frame = 0
 1615              		@ frame_needed = 0, uses_anonymous_args = 0
 1616              		@ link register save eliminated.
 723:Drivers/GD32_F470_STD_Driver/Source/gd32f4xx_usart.c ****     USART_CTL2(usart_periph) &= ~(USART_CTL2_IRLP);
 1617              		.loc 1 723 5 view .LVU355
 1618              		.loc 1 723 30 is_stmt 0 view .LVU356
 1619 0000 4369     		ldr	r3, [r0, #20]
 1620 0002 23F00403 		bic	r3, r3, #4
 1621 0006 4361     		str	r3, [r0, #20]
 724:Drivers/GD32_F470_STD_Driver/Source/gd32f4xx_usart.c ****     USART_CTL2(usart_periph) |= (USART_CTL2_IRLP & irlp);
 1622              		.loc 1 724 5 is_stmt 1 view .LVU357
 1623              		.loc 1 724 30 is_stmt 0 view .LVU358
 1624 0008 4369     		ldr	r3, [r0, #20]
 1625              		.loc 1 724 50 view .LVU359
ARM GAS  /tmp/ccLXJ74X.s 			page 42


 1626 000a 01F00401 		and	r1, r1, #4
 1627              	.LVL136:
 1628              		.loc 1 724 30 view .LVU360
 1629 000e 0B43     		orrs	r3, r3, r1
 1630 0010 4361     		str	r3, [r0, #20]
 725:Drivers/GD32_F470_STD_Driver/Source/gd32f4xx_usart.c **** }
 1631              		.loc 1 725 1 view .LVU361
 1632 0012 7047     		bx	lr
 1633              		.cfi_endproc
 1634              	.LFE157:
 1636              		.section	.text.usart_hardware_flow_rts_config,"ax",%progbits
 1637              		.align	1
 1638              		.global	usart_hardware_flow_rts_config
 1639              		.syntax unified
 1640              		.thumb
 1641              		.thumb_func
 1643              	usart_hardware_flow_rts_config:
 1644              	.LVL137:
 1645              	.LFB158:
 726:Drivers/GD32_F470_STD_Driver/Source/gd32f4xx_usart.c **** 
 727:Drivers/GD32_F470_STD_Driver/Source/gd32f4xx_usart.c **** /*!
 728:Drivers/GD32_F470_STD_Driver/Source/gd32f4xx_usart.c ****     \brief    configure hardware flow control RTS
 729:Drivers/GD32_F470_STD_Driver/Source/gd32f4xx_usart.c ****     \param[in]  usart_periph: USARTx(x=0,1,2,5)
 730:Drivers/GD32_F470_STD_Driver/Source/gd32f4xx_usart.c ****     \param[in]  rtsconfig: enable or disable RTS
 731:Drivers/GD32_F470_STD_Driver/Source/gd32f4xx_usart.c ****                 only one parameter can be selected which is shown as below:
 732:Drivers/GD32_F470_STD_Driver/Source/gd32f4xx_usart.c ****       \arg        USART_RTS_ENABLE:  enable RTS
 733:Drivers/GD32_F470_STD_Driver/Source/gd32f4xx_usart.c ****       \arg        USART_RTS_DISABLE: disable RTS
 734:Drivers/GD32_F470_STD_Driver/Source/gd32f4xx_usart.c ****     \param[out] none
 735:Drivers/GD32_F470_STD_Driver/Source/gd32f4xx_usart.c ****     \retval     none
 736:Drivers/GD32_F470_STD_Driver/Source/gd32f4xx_usart.c **** */
 737:Drivers/GD32_F470_STD_Driver/Source/gd32f4xx_usart.c **** void usart_hardware_flow_rts_config(uint32_t usart_periph, uint32_t rtsconfig)
 738:Drivers/GD32_F470_STD_Driver/Source/gd32f4xx_usart.c **** {
 1646              		.loc 1 738 1 is_stmt 1 view -0
 1647              		.cfi_startproc
 1648              		@ args = 0, pretend = 0, frame = 0
 1649              		@ frame_needed = 0, uses_anonymous_args = 0
 1650              		@ link register save eliminated.
 739:Drivers/GD32_F470_STD_Driver/Source/gd32f4xx_usart.c ****     uint32_t ctl = 0U;
 1651              		.loc 1 739 5 view .LVU363
 740:Drivers/GD32_F470_STD_Driver/Source/gd32f4xx_usart.c **** 
 741:Drivers/GD32_F470_STD_Driver/Source/gd32f4xx_usart.c ****     ctl = USART_CTL2(usart_periph);
 1652              		.loc 1 741 5 view .LVU364
 1653              		.loc 1 741 9 is_stmt 0 view .LVU365
 1654 0000 4369     		ldr	r3, [r0, #20]
 1655              	.LVL138:
 742:Drivers/GD32_F470_STD_Driver/Source/gd32f4xx_usart.c ****     ctl &= ~USART_CTL2_RTSEN;
 1656              		.loc 1 742 5 is_stmt 1 view .LVU366
 1657              		.loc 1 742 9 is_stmt 0 view .LVU367
 1658 0002 23F48073 		bic	r3, r3, #256
 1659              	.LVL139:
 743:Drivers/GD32_F470_STD_Driver/Source/gd32f4xx_usart.c ****     ctl |= rtsconfig;
 1660              		.loc 1 743 5 is_stmt 1 view .LVU368
 1661              		.loc 1 743 9 is_stmt 0 view .LVU369
 1662 0006 0B43     		orrs	r3, r3, r1
 1663              	.LVL140:
 744:Drivers/GD32_F470_STD_Driver/Source/gd32f4xx_usart.c ****     /* configure RTS */
 745:Drivers/GD32_F470_STD_Driver/Source/gd32f4xx_usart.c ****     USART_CTL2(usart_periph) = ctl;
ARM GAS  /tmp/ccLXJ74X.s 			page 43


 1664              		.loc 1 745 5 is_stmt 1 view .LVU370
 1665              		.loc 1 745 30 is_stmt 0 view .LVU371
 1666 0008 4361     		str	r3, [r0, #20]
 746:Drivers/GD32_F470_STD_Driver/Source/gd32f4xx_usart.c **** }
 1667              		.loc 1 746 1 view .LVU372
 1668 000a 7047     		bx	lr
 1669              		.cfi_endproc
 1670              	.LFE158:
 1672              		.section	.text.usart_hardware_flow_cts_config,"ax",%progbits
 1673              		.align	1
 1674              		.global	usart_hardware_flow_cts_config
 1675              		.syntax unified
 1676              		.thumb
 1677              		.thumb_func
 1679              	usart_hardware_flow_cts_config:
 1680              	.LVL141:
 1681              	.LFB159:
 747:Drivers/GD32_F470_STD_Driver/Source/gd32f4xx_usart.c **** 
 748:Drivers/GD32_F470_STD_Driver/Source/gd32f4xx_usart.c **** /*!
 749:Drivers/GD32_F470_STD_Driver/Source/gd32f4xx_usart.c ****     \brief    configure hardware flow control CTS
 750:Drivers/GD32_F470_STD_Driver/Source/gd32f4xx_usart.c ****     \param[in]  usart_periph: USARTx(x=0,1,2,5)
 751:Drivers/GD32_F470_STD_Driver/Source/gd32f4xx_usart.c ****     \param[in]  ctsconfig: enable or disable CTS
 752:Drivers/GD32_F470_STD_Driver/Source/gd32f4xx_usart.c ****                 only one parameter can be selected which is shown as below:
 753:Drivers/GD32_F470_STD_Driver/Source/gd32f4xx_usart.c ****       \arg        USART_CTS_ENABLE:  enable CTS
 754:Drivers/GD32_F470_STD_Driver/Source/gd32f4xx_usart.c ****       \arg        USART_CTS_DISABLE: disable CTS
 755:Drivers/GD32_F470_STD_Driver/Source/gd32f4xx_usart.c ****     \param[out] none
 756:Drivers/GD32_F470_STD_Driver/Source/gd32f4xx_usart.c ****     \retval     none
 757:Drivers/GD32_F470_STD_Driver/Source/gd32f4xx_usart.c **** */
 758:Drivers/GD32_F470_STD_Driver/Source/gd32f4xx_usart.c **** void usart_hardware_flow_cts_config(uint32_t usart_periph, uint32_t ctsconfig)
 759:Drivers/GD32_F470_STD_Driver/Source/gd32f4xx_usart.c **** {
 1682              		.loc 1 759 1 is_stmt 1 view -0
 1683              		.cfi_startproc
 1684              		@ args = 0, pretend = 0, frame = 0
 1685              		@ frame_needed = 0, uses_anonymous_args = 0
 1686              		@ link register save eliminated.
 760:Drivers/GD32_F470_STD_Driver/Source/gd32f4xx_usart.c ****     uint32_t ctl = 0U;
 1687              		.loc 1 760 5 view .LVU374
 761:Drivers/GD32_F470_STD_Driver/Source/gd32f4xx_usart.c **** 
 762:Drivers/GD32_F470_STD_Driver/Source/gd32f4xx_usart.c ****     ctl = USART_CTL2(usart_periph);
 1688              		.loc 1 762 5 view .LVU375
 1689              		.loc 1 762 9 is_stmt 0 view .LVU376
 1690 0000 4369     		ldr	r3, [r0, #20]
 1691              	.LVL142:
 763:Drivers/GD32_F470_STD_Driver/Source/gd32f4xx_usart.c ****     ctl &= ~USART_CTL2_CTSEN;
 1692              		.loc 1 763 5 is_stmt 1 view .LVU377
 1693              		.loc 1 763 9 is_stmt 0 view .LVU378
 1694 0002 23F40073 		bic	r3, r3, #512
 1695              	.LVL143:
 764:Drivers/GD32_F470_STD_Driver/Source/gd32f4xx_usart.c ****     ctl |= ctsconfig;
 1696              		.loc 1 764 5 is_stmt 1 view .LVU379
 1697              		.loc 1 764 9 is_stmt 0 view .LVU380
 1698 0006 0B43     		orrs	r3, r3, r1
 1699              	.LVL144:
 765:Drivers/GD32_F470_STD_Driver/Source/gd32f4xx_usart.c ****     /* configure CTS */
 766:Drivers/GD32_F470_STD_Driver/Source/gd32f4xx_usart.c ****     USART_CTL2(usart_periph) = ctl;
 1700              		.loc 1 766 5 is_stmt 1 view .LVU381
 1701              		.loc 1 766 30 is_stmt 0 view .LVU382
ARM GAS  /tmp/ccLXJ74X.s 			page 44


 1702 0008 4361     		str	r3, [r0, #20]
 767:Drivers/GD32_F470_STD_Driver/Source/gd32f4xx_usart.c **** }
 1703              		.loc 1 767 1 view .LVU383
 1704 000a 7047     		bx	lr
 1705              		.cfi_endproc
 1706              	.LFE159:
 1708              		.section	.text.usart_break_frame_coherence_config,"ax",%progbits
 1709              		.align	1
 1710              		.global	usart_break_frame_coherence_config
 1711              		.syntax unified
 1712              		.thumb
 1713              		.thumb_func
 1715              	usart_break_frame_coherence_config:
 1716              	.LVL145:
 1717              	.LFB160:
 768:Drivers/GD32_F470_STD_Driver/Source/gd32f4xx_usart.c **** 
 769:Drivers/GD32_F470_STD_Driver/Source/gd32f4xx_usart.c **** /*!
 770:Drivers/GD32_F470_STD_Driver/Source/gd32f4xx_usart.c ****     \brief    configure break frame coherence mode
 771:Drivers/GD32_F470_STD_Driver/Source/gd32f4xx_usart.c ****     \param[in]  usart_periph: USARTx(x=0,1,2,5)
 772:Drivers/GD32_F470_STD_Driver/Source/gd32f4xx_usart.c ****     \param[in]  bcm:
 773:Drivers/GD32_F470_STD_Driver/Source/gd32f4xx_usart.c ****                 only one parameter can be selected which is shown as below:
 774:Drivers/GD32_F470_STD_Driver/Source/gd32f4xx_usart.c ****       \arg        USART_BCM_NONE: no parity error is detected
 775:Drivers/GD32_F470_STD_Driver/Source/gd32f4xx_usart.c ****       \arg        USART_BCM_EN:   parity error is detected
 776:Drivers/GD32_F470_STD_Driver/Source/gd32f4xx_usart.c ****     \param[out] none
 777:Drivers/GD32_F470_STD_Driver/Source/gd32f4xx_usart.c ****     \retval     none
 778:Drivers/GD32_F470_STD_Driver/Source/gd32f4xx_usart.c **** */
 779:Drivers/GD32_F470_STD_Driver/Source/gd32f4xx_usart.c **** void usart_break_frame_coherence_config(uint32_t usart_periph, uint32_t bcm)
 780:Drivers/GD32_F470_STD_Driver/Source/gd32f4xx_usart.c **** {
 1718              		.loc 1 780 1 is_stmt 1 view -0
 1719              		.cfi_startproc
 1720              		@ args = 0, pretend = 0, frame = 0
 1721              		@ frame_needed = 0, uses_anonymous_args = 0
 1722              		@ link register save eliminated.
 781:Drivers/GD32_F470_STD_Driver/Source/gd32f4xx_usart.c ****     USART_CHC(usart_periph) &= ~(USART_CHC_BCM);
 1723              		.loc 1 781 5 view .LVU385
 1724              		.loc 1 781 29 is_stmt 0 view .LVU386
 1725 0000 D0F8C030 		ldr	r3, [r0, #192]
 1726 0004 23F00403 		bic	r3, r3, #4
 1727 0008 C0F8C030 		str	r3, [r0, #192]
 782:Drivers/GD32_F470_STD_Driver/Source/gd32f4xx_usart.c ****     USART_CHC(usart_periph) |= (USART_CHC_BCM & bcm);
 1728              		.loc 1 782 5 is_stmt 1 view .LVU387
 1729              		.loc 1 782 29 is_stmt 0 view .LVU388
 1730 000c D0F8C030 		ldr	r3, [r0, #192]
 1731              		.loc 1 782 47 view .LVU389
 1732 0010 01F00401 		and	r1, r1, #4
 1733              	.LVL146:
 1734              		.loc 1 782 29 view .LVU390
 1735 0014 0B43     		orrs	r3, r3, r1
 1736 0016 C0F8C030 		str	r3, [r0, #192]
 783:Drivers/GD32_F470_STD_Driver/Source/gd32f4xx_usart.c **** }
 1737              		.loc 1 783 1 view .LVU391
 1738 001a 7047     		bx	lr
 1739              		.cfi_endproc
 1740              	.LFE160:
 1742              		.section	.text.usart_parity_check_coherence_config,"ax",%progbits
 1743              		.align	1
 1744              		.global	usart_parity_check_coherence_config
ARM GAS  /tmp/ccLXJ74X.s 			page 45


 1745              		.syntax unified
 1746              		.thumb
 1747              		.thumb_func
 1749              	usart_parity_check_coherence_config:
 1750              	.LVL147:
 1751              	.LFB161:
 784:Drivers/GD32_F470_STD_Driver/Source/gd32f4xx_usart.c **** 
 785:Drivers/GD32_F470_STD_Driver/Source/gd32f4xx_usart.c **** /*!
 786:Drivers/GD32_F470_STD_Driver/Source/gd32f4xx_usart.c ****     \brief    configure parity check coherence mode
 787:Drivers/GD32_F470_STD_Driver/Source/gd32f4xx_usart.c ****     \param[in]  usart_periph: USARTx(x=0,1,2,5)/UARTx(x=3,4,6,7)
 788:Drivers/GD32_F470_STD_Driver/Source/gd32f4xx_usart.c ****     \param[in]  pcm:
 789:Drivers/GD32_F470_STD_Driver/Source/gd32f4xx_usart.c ****                 only one parameter can be selected which is shown as below:
 790:Drivers/GD32_F470_STD_Driver/Source/gd32f4xx_usart.c ****       \arg        USART_PCM_NONE: not check parity
 791:Drivers/GD32_F470_STD_Driver/Source/gd32f4xx_usart.c ****       \arg        USART_PCM_EN:   check the parity
 792:Drivers/GD32_F470_STD_Driver/Source/gd32f4xx_usart.c ****     \param[out] none
 793:Drivers/GD32_F470_STD_Driver/Source/gd32f4xx_usart.c ****     \retval     none
 794:Drivers/GD32_F470_STD_Driver/Source/gd32f4xx_usart.c **** */
 795:Drivers/GD32_F470_STD_Driver/Source/gd32f4xx_usart.c **** void usart_parity_check_coherence_config(uint32_t usart_periph, uint32_t pcm)
 796:Drivers/GD32_F470_STD_Driver/Source/gd32f4xx_usart.c **** {
 1752              		.loc 1 796 1 is_stmt 1 view -0
 1753              		.cfi_startproc
 1754              		@ args = 0, pretend = 0, frame = 0
 1755              		@ frame_needed = 0, uses_anonymous_args = 0
 1756              		@ link register save eliminated.
 797:Drivers/GD32_F470_STD_Driver/Source/gd32f4xx_usart.c ****     USART_CHC(usart_periph) &= ~(USART_CHC_PCM);
 1757              		.loc 1 797 5 view .LVU393
 1758              		.loc 1 797 29 is_stmt 0 view .LVU394
 1759 0000 D0F8C030 		ldr	r3, [r0, #192]
 1760 0004 23F00203 		bic	r3, r3, #2
 1761 0008 C0F8C030 		str	r3, [r0, #192]
 798:Drivers/GD32_F470_STD_Driver/Source/gd32f4xx_usart.c ****     USART_CHC(usart_periph) |= (USART_CHC_PCM & pcm);
 1762              		.loc 1 798 5 is_stmt 1 view .LVU395
 1763              		.loc 1 798 29 is_stmt 0 view .LVU396
 1764 000c D0F8C030 		ldr	r3, [r0, #192]
 1765              		.loc 1 798 47 view .LVU397
 1766 0010 01F00201 		and	r1, r1, #2
 1767              	.LVL148:
 1768              		.loc 1 798 29 view .LVU398
 1769 0014 0B43     		orrs	r3, r3, r1
 1770 0016 C0F8C030 		str	r3, [r0, #192]
 799:Drivers/GD32_F470_STD_Driver/Source/gd32f4xx_usart.c **** }
 1771              		.loc 1 799 1 view .LVU399
 1772 001a 7047     		bx	lr
 1773              		.cfi_endproc
 1774              	.LFE161:
 1776              		.section	.text.usart_hardware_flow_coherence_config,"ax",%progbits
 1777              		.align	1
 1778              		.global	usart_hardware_flow_coherence_config
 1779              		.syntax unified
 1780              		.thumb
 1781              		.thumb_func
 1783              	usart_hardware_flow_coherence_config:
 1784              	.LVL149:
 1785              	.LFB162:
 800:Drivers/GD32_F470_STD_Driver/Source/gd32f4xx_usart.c **** 
 801:Drivers/GD32_F470_STD_Driver/Source/gd32f4xx_usart.c **** /*!
 802:Drivers/GD32_F470_STD_Driver/Source/gd32f4xx_usart.c ****     \brief    configure hardware flow control coherence mode
ARM GAS  /tmp/ccLXJ74X.s 			page 46


 803:Drivers/GD32_F470_STD_Driver/Source/gd32f4xx_usart.c ****     \param[in]  usart_periph: USARTx(x=0,1,2,5)
 804:Drivers/GD32_F470_STD_Driver/Source/gd32f4xx_usart.c ****     \param[in]  hcm:
 805:Drivers/GD32_F470_STD_Driver/Source/gd32f4xx_usart.c ****                 only one parameter can be selected which is shown as below:
 806:Drivers/GD32_F470_STD_Driver/Source/gd32f4xx_usart.c ****       \arg        USART_HCM_NONE: nRTS signal equals to the rxne status register
 807:Drivers/GD32_F470_STD_Driver/Source/gd32f4xx_usart.c ****       \arg        USART_HCM_EN:   nRTS signal is set when the last data bit has been sampled
 808:Drivers/GD32_F470_STD_Driver/Source/gd32f4xx_usart.c ****     \param[out] none
 809:Drivers/GD32_F470_STD_Driver/Source/gd32f4xx_usart.c ****     \retval     none
 810:Drivers/GD32_F470_STD_Driver/Source/gd32f4xx_usart.c **** */
 811:Drivers/GD32_F470_STD_Driver/Source/gd32f4xx_usart.c **** void usart_hardware_flow_coherence_config(uint32_t usart_periph, uint32_t hcm)
 812:Drivers/GD32_F470_STD_Driver/Source/gd32f4xx_usart.c **** {
 1786              		.loc 1 812 1 is_stmt 1 view -0
 1787              		.cfi_startproc
 1788              		@ args = 0, pretend = 0, frame = 0
 1789              		@ frame_needed = 0, uses_anonymous_args = 0
 1790              		@ link register save eliminated.
 813:Drivers/GD32_F470_STD_Driver/Source/gd32f4xx_usart.c ****     USART_CHC(usart_periph) &= ~(USART_CHC_HCM);
 1791              		.loc 1 813 5 view .LVU401
 1792              		.loc 1 813 29 is_stmt 0 view .LVU402
 1793 0000 D0F8C030 		ldr	r3, [r0, #192]
 1794 0004 23F00103 		bic	r3, r3, #1
 1795 0008 C0F8C030 		str	r3, [r0, #192]
 814:Drivers/GD32_F470_STD_Driver/Source/gd32f4xx_usart.c ****     USART_CHC(usart_periph) |= (USART_CHC_HCM & hcm);
 1796              		.loc 1 814 5 is_stmt 1 view .LVU403
 1797              		.loc 1 814 29 is_stmt 0 view .LVU404
 1798 000c D0F8C030 		ldr	r3, [r0, #192]
 1799              		.loc 1 814 47 view .LVU405
 1800 0010 01F00101 		and	r1, r1, #1
 1801              	.LVL150:
 1802              		.loc 1 814 29 view .LVU406
 1803 0014 0B43     		orrs	r3, r3, r1
 1804 0016 C0F8C030 		str	r3, [r0, #192]
 815:Drivers/GD32_F470_STD_Driver/Source/gd32f4xx_usart.c **** }
 1805              		.loc 1 815 1 view .LVU407
 1806 001a 7047     		bx	lr
 1807              		.cfi_endproc
 1808              	.LFE162:
 1810              		.section	.text.usart_dma_receive_config,"ax",%progbits
 1811              		.align	1
 1812              		.global	usart_dma_receive_config
 1813              		.syntax unified
 1814              		.thumb
 1815              		.thumb_func
 1817              	usart_dma_receive_config:
 1818              	.LVL151:
 1819              	.LFB163:
 816:Drivers/GD32_F470_STD_Driver/Source/gd32f4xx_usart.c **** 
 817:Drivers/GD32_F470_STD_Driver/Source/gd32f4xx_usart.c **** /*!
 818:Drivers/GD32_F470_STD_Driver/Source/gd32f4xx_usart.c ****     \brief    configure USART DMA reception
 819:Drivers/GD32_F470_STD_Driver/Source/gd32f4xx_usart.c ****     \param[in]  usart_periph: USARTx(x=0,1,2,5)/UARTx(x=3,4,6,7)
 820:Drivers/GD32_F470_STD_Driver/Source/gd32f4xx_usart.c ****     \param[in]  dmacmd: enable or disable DMA for reception
 821:Drivers/GD32_F470_STD_Driver/Source/gd32f4xx_usart.c ****                 only one parameter can be selected which is shown as below:
 822:Drivers/GD32_F470_STD_Driver/Source/gd32f4xx_usart.c ****       \arg        USART_DENR_ENABLE:  DMA enable for reception
 823:Drivers/GD32_F470_STD_Driver/Source/gd32f4xx_usart.c ****       \arg        USART_DENR_DISABLE: DMA disable for reception
 824:Drivers/GD32_F470_STD_Driver/Source/gd32f4xx_usart.c ****     \param[out] none
 825:Drivers/GD32_F470_STD_Driver/Source/gd32f4xx_usart.c ****     \retval     none
 826:Drivers/GD32_F470_STD_Driver/Source/gd32f4xx_usart.c **** */
 827:Drivers/GD32_F470_STD_Driver/Source/gd32f4xx_usart.c **** void usart_dma_receive_config(uint32_t usart_periph, uint32_t dmacmd)
ARM GAS  /tmp/ccLXJ74X.s 			page 47


 828:Drivers/GD32_F470_STD_Driver/Source/gd32f4xx_usart.c **** {
 1820              		.loc 1 828 1 is_stmt 1 view -0
 1821              		.cfi_startproc
 1822              		@ args = 0, pretend = 0, frame = 0
 1823              		@ frame_needed = 0, uses_anonymous_args = 0
 1824              		@ link register save eliminated.
 829:Drivers/GD32_F470_STD_Driver/Source/gd32f4xx_usart.c ****     uint32_t ctl = 0U;
 1825              		.loc 1 829 5 view .LVU409
 830:Drivers/GD32_F470_STD_Driver/Source/gd32f4xx_usart.c **** 
 831:Drivers/GD32_F470_STD_Driver/Source/gd32f4xx_usart.c ****     ctl = USART_CTL2(usart_periph);
 1826              		.loc 1 831 5 view .LVU410
 1827              		.loc 1 831 9 is_stmt 0 view .LVU411
 1828 0000 4369     		ldr	r3, [r0, #20]
 1829              	.LVL152:
 832:Drivers/GD32_F470_STD_Driver/Source/gd32f4xx_usart.c ****     ctl &= ~USART_CTL2_DENR;
 1830              		.loc 1 832 5 is_stmt 1 view .LVU412
 1831              		.loc 1 832 9 is_stmt 0 view .LVU413
 1832 0002 23F04003 		bic	r3, r3, #64
 1833              	.LVL153:
 833:Drivers/GD32_F470_STD_Driver/Source/gd32f4xx_usart.c ****     ctl |= dmacmd;
 1834              		.loc 1 833 5 is_stmt 1 view .LVU414
 1835              		.loc 1 833 9 is_stmt 0 view .LVU415
 1836 0006 0B43     		orrs	r3, r3, r1
 1837              	.LVL154:
 834:Drivers/GD32_F470_STD_Driver/Source/gd32f4xx_usart.c ****     /* configure DMA reception */
 835:Drivers/GD32_F470_STD_Driver/Source/gd32f4xx_usart.c ****     USART_CTL2(usart_periph) = ctl;
 1838              		.loc 1 835 5 is_stmt 1 view .LVU416
 1839              		.loc 1 835 30 is_stmt 0 view .LVU417
 1840 0008 4361     		str	r3, [r0, #20]
 836:Drivers/GD32_F470_STD_Driver/Source/gd32f4xx_usart.c **** }
 1841              		.loc 1 836 1 view .LVU418
 1842 000a 7047     		bx	lr
 1843              		.cfi_endproc
 1844              	.LFE163:
 1846              		.section	.text.usart_dma_transmit_config,"ax",%progbits
 1847              		.align	1
 1848              		.global	usart_dma_transmit_config
 1849              		.syntax unified
 1850              		.thumb
 1851              		.thumb_func
 1853              	usart_dma_transmit_config:
 1854              	.LVL155:
 1855              	.LFB164:
 837:Drivers/GD32_F470_STD_Driver/Source/gd32f4xx_usart.c **** 
 838:Drivers/GD32_F470_STD_Driver/Source/gd32f4xx_usart.c **** /*!
 839:Drivers/GD32_F470_STD_Driver/Source/gd32f4xx_usart.c ****     \brief    configure USART DMA transmission
 840:Drivers/GD32_F470_STD_Driver/Source/gd32f4xx_usart.c ****     \param[in]  usart_periph: USARTx(x=0,1,2,5)/UARTx(x=3,4,6,7)
 841:Drivers/GD32_F470_STD_Driver/Source/gd32f4xx_usart.c ****     \param[in]  dmacmd: enable or disable DMA for transmission
 842:Drivers/GD32_F470_STD_Driver/Source/gd32f4xx_usart.c ****                 only one parameter can be selected which is shown as below:
 843:Drivers/GD32_F470_STD_Driver/Source/gd32f4xx_usart.c ****       \arg        USART_DENT_ENABLE:  DMA enable for transmission
 844:Drivers/GD32_F470_STD_Driver/Source/gd32f4xx_usart.c ****       \arg        USART_DENT_DISABLE: DMA disable for transmission
 845:Drivers/GD32_F470_STD_Driver/Source/gd32f4xx_usart.c ****     \param[out] none
 846:Drivers/GD32_F470_STD_Driver/Source/gd32f4xx_usart.c ****     \retval     none
 847:Drivers/GD32_F470_STD_Driver/Source/gd32f4xx_usart.c **** */
 848:Drivers/GD32_F470_STD_Driver/Source/gd32f4xx_usart.c **** void usart_dma_transmit_config(uint32_t usart_periph, uint32_t dmacmd)
 849:Drivers/GD32_F470_STD_Driver/Source/gd32f4xx_usart.c **** {
 1856              		.loc 1 849 1 is_stmt 1 view -0
ARM GAS  /tmp/ccLXJ74X.s 			page 48


 1857              		.cfi_startproc
 1858              		@ args = 0, pretend = 0, frame = 0
 1859              		@ frame_needed = 0, uses_anonymous_args = 0
 1860              		@ link register save eliminated.
 850:Drivers/GD32_F470_STD_Driver/Source/gd32f4xx_usart.c ****     uint32_t ctl = 0U;
 1861              		.loc 1 850 5 view .LVU420
 851:Drivers/GD32_F470_STD_Driver/Source/gd32f4xx_usart.c **** 
 852:Drivers/GD32_F470_STD_Driver/Source/gd32f4xx_usart.c ****     ctl = USART_CTL2(usart_periph);
 1862              		.loc 1 852 5 view .LVU421
 1863              		.loc 1 852 9 is_stmt 0 view .LVU422
 1864 0000 4369     		ldr	r3, [r0, #20]
 1865              	.LVL156:
 853:Drivers/GD32_F470_STD_Driver/Source/gd32f4xx_usart.c ****     ctl &= ~USART_CTL2_DENT;
 1866              		.loc 1 853 5 is_stmt 1 view .LVU423
 1867              		.loc 1 853 9 is_stmt 0 view .LVU424
 1868 0002 23F08003 		bic	r3, r3, #128
 1869              	.LVL157:
 854:Drivers/GD32_F470_STD_Driver/Source/gd32f4xx_usart.c ****     ctl |= dmacmd;
 1870              		.loc 1 854 5 is_stmt 1 view .LVU425
 1871              		.loc 1 854 9 is_stmt 0 view .LVU426
 1872 0006 0B43     		orrs	r3, r3, r1
 1873              	.LVL158:
 855:Drivers/GD32_F470_STD_Driver/Source/gd32f4xx_usart.c ****     /* configure DMA transmission */
 856:Drivers/GD32_F470_STD_Driver/Source/gd32f4xx_usart.c ****     USART_CTL2(usart_periph) = ctl;
 1874              		.loc 1 856 5 is_stmt 1 view .LVU427
 1875              		.loc 1 856 30 is_stmt 0 view .LVU428
 1876 0008 4361     		str	r3, [r0, #20]
 857:Drivers/GD32_F470_STD_Driver/Source/gd32f4xx_usart.c **** }
 1877              		.loc 1 857 1 view .LVU429
 1878 000a 7047     		bx	lr
 1879              		.cfi_endproc
 1880              	.LFE164:
 1882              		.section	.text.usart_flag_get,"ax",%progbits
 1883              		.align	1
 1884              		.global	usart_flag_get
 1885              		.syntax unified
 1886              		.thumb
 1887              		.thumb_func
 1889              	usart_flag_get:
 1890              	.LVL159:
 1891              	.LFB165:
 858:Drivers/GD32_F470_STD_Driver/Source/gd32f4xx_usart.c **** 
 859:Drivers/GD32_F470_STD_Driver/Source/gd32f4xx_usart.c **** /*!
 860:Drivers/GD32_F470_STD_Driver/Source/gd32f4xx_usart.c ****     \brief    get flag in STAT0/STAT1/CHC register
 861:Drivers/GD32_F470_STD_Driver/Source/gd32f4xx_usart.c ****     \param[in]  usart_periph: USARTx(x=0,1,2,5)/UARTx(x=3,4,6,7)
 862:Drivers/GD32_F470_STD_Driver/Source/gd32f4xx_usart.c ****     \param[in]  flag: USART flags, refer to usart_flag_enum
 863:Drivers/GD32_F470_STD_Driver/Source/gd32f4xx_usart.c ****                 only one parameter can be selected which is shown as below:
 864:Drivers/GD32_F470_STD_Driver/Source/gd32f4xx_usart.c ****       \arg        USART_FLAG_CTS: CTS change flag
 865:Drivers/GD32_F470_STD_Driver/Source/gd32f4xx_usart.c ****       \arg        USART_FLAG_LBD: LIN break detected flag
 866:Drivers/GD32_F470_STD_Driver/Source/gd32f4xx_usart.c ****       \arg        USART_FLAG_TBE: transmit data buffer empty
 867:Drivers/GD32_F470_STD_Driver/Source/gd32f4xx_usart.c ****       \arg        USART_FLAG_TC: transmission complete
 868:Drivers/GD32_F470_STD_Driver/Source/gd32f4xx_usart.c ****       \arg        USART_FLAG_RBNE: read data buffer not empty
 869:Drivers/GD32_F470_STD_Driver/Source/gd32f4xx_usart.c ****       \arg        USART_FLAG_IDLE: IDLE frame detected flag
 870:Drivers/GD32_F470_STD_Driver/Source/gd32f4xx_usart.c ****       \arg        USART_FLAG_ORERR: overrun error
 871:Drivers/GD32_F470_STD_Driver/Source/gd32f4xx_usart.c ****       \arg        USART_FLAG_NERR: noise error flag
 872:Drivers/GD32_F470_STD_Driver/Source/gd32f4xx_usart.c ****       \arg        USART_FLAG_FERR: frame error flag
 873:Drivers/GD32_F470_STD_Driver/Source/gd32f4xx_usart.c ****       \arg        USART_FLAG_PERR: parity error flag
ARM GAS  /tmp/ccLXJ74X.s 			page 49


 874:Drivers/GD32_F470_STD_Driver/Source/gd32f4xx_usart.c ****       \arg        USART_FLAG_BSY: busy flag
 875:Drivers/GD32_F470_STD_Driver/Source/gd32f4xx_usart.c ****       \arg        USART_FLAG_EB: end of block flag
 876:Drivers/GD32_F470_STD_Driver/Source/gd32f4xx_usart.c ****       \arg        USART_FLAG_RT: receiver timeout flag
 877:Drivers/GD32_F470_STD_Driver/Source/gd32f4xx_usart.c ****       \arg        USART_FLAG_EPERR: early parity error flag
 878:Drivers/GD32_F470_STD_Driver/Source/gd32f4xx_usart.c ****     \param[out] none
 879:Drivers/GD32_F470_STD_Driver/Source/gd32f4xx_usart.c ****     \retval     FlagStatus: SET or RESET
 880:Drivers/GD32_F470_STD_Driver/Source/gd32f4xx_usart.c **** */
 881:Drivers/GD32_F470_STD_Driver/Source/gd32f4xx_usart.c **** FlagStatus usart_flag_get(uint32_t usart_periph, usart_flag_enum flag)
 882:Drivers/GD32_F470_STD_Driver/Source/gd32f4xx_usart.c **** {
 1892              		.loc 1 882 1 is_stmt 1 view -0
 1893              		.cfi_startproc
 1894              		@ args = 0, pretend = 0, frame = 0
 1895              		@ frame_needed = 0, uses_anonymous_args = 0
 1896              		@ link register save eliminated.
 883:Drivers/GD32_F470_STD_Driver/Source/gd32f4xx_usart.c ****     if(RESET != (USART_REG_VAL(usart_periph, flag) & BIT(USART_BIT_POS(flag)))) {
 1897              		.loc 1 883 5 view .LVU431
 1898              		.loc 1 883 18 is_stmt 0 view .LVU432
 1899 0000 8B09     		lsrs	r3, r1, #6
 1900 0002 1B58     		ldr	r3, [r3, r0]
 1901              		.loc 1 883 54 view .LVU433
 1902 0004 01F01F01 		and	r1, r1, #31
 1903              	.LVL160:
 1904              		.loc 1 883 14 view .LVU434
 1905 0008 23FA01F1 		lsr	r1, r3, r1
 1906              		.loc 1 883 7 view .LVU435
 1907 000c 11F0010F 		tst	r1, #1
 1908 0010 01D0     		beq	.L98
 884:Drivers/GD32_F470_STD_Driver/Source/gd32f4xx_usart.c ****         return SET;
 1909              		.loc 1 884 16 view .LVU436
 1910 0012 0120     		movs	r0, #1
 1911              	.LVL161:
 1912              		.loc 1 884 16 view .LVU437
 1913 0014 7047     		bx	lr
 1914              	.LVL162:
 1915              	.L98:
 885:Drivers/GD32_F470_STD_Driver/Source/gd32f4xx_usart.c ****     } else {
 886:Drivers/GD32_F470_STD_Driver/Source/gd32f4xx_usart.c ****         return RESET;
 1916              		.loc 1 886 16 view .LVU438
 1917 0016 0020     		movs	r0, #0
 1918              	.LVL163:
 887:Drivers/GD32_F470_STD_Driver/Source/gd32f4xx_usart.c ****     }
 888:Drivers/GD32_F470_STD_Driver/Source/gd32f4xx_usart.c **** }
 1919              		.loc 1 888 1 view .LVU439
 1920 0018 7047     		bx	lr
 1921              		.cfi_endproc
 1922              	.LFE165:
 1924              		.section	.text.usart_flag_clear,"ax",%progbits
 1925              		.align	1
 1926              		.global	usart_flag_clear
 1927              		.syntax unified
 1928              		.thumb
 1929              		.thumb_func
 1931              	usart_flag_clear:
 1932              	.LVL164:
 1933              	.LFB166:
 889:Drivers/GD32_F470_STD_Driver/Source/gd32f4xx_usart.c **** 
 890:Drivers/GD32_F470_STD_Driver/Source/gd32f4xx_usart.c **** /*!
ARM GAS  /tmp/ccLXJ74X.s 			page 50


 891:Drivers/GD32_F470_STD_Driver/Source/gd32f4xx_usart.c ****     \brief    clear flag in STAT0/STAT1/CHC register
 892:Drivers/GD32_F470_STD_Driver/Source/gd32f4xx_usart.c ****     \param[in]  usart_periph: USARTx(x=0,1,2,5)/UARTx(x=3,4,6,7)
 893:Drivers/GD32_F470_STD_Driver/Source/gd32f4xx_usart.c ****     \param[in]  flag: USART flags, refer to usart_flag_enum
 894:Drivers/GD32_F470_STD_Driver/Source/gd32f4xx_usart.c ****                 only one parameter can be selected which is shown as below:
 895:Drivers/GD32_F470_STD_Driver/Source/gd32f4xx_usart.c ****       \arg        USART_FLAG_CTS: CTS change flag
 896:Drivers/GD32_F470_STD_Driver/Source/gd32f4xx_usart.c ****       \arg        USART_FLAG_LBD: LIN break detected flag
 897:Drivers/GD32_F470_STD_Driver/Source/gd32f4xx_usart.c ****       \arg        USART_FLAG_TC: transmission complete
 898:Drivers/GD32_F470_STD_Driver/Source/gd32f4xx_usart.c ****       \arg        USART_FLAG_RBNE: read data buffer not empty
 899:Drivers/GD32_F470_STD_Driver/Source/gd32f4xx_usart.c ****       \arg        USART_FLAG_EB: end of block flag
 900:Drivers/GD32_F470_STD_Driver/Source/gd32f4xx_usart.c ****       \arg        USART_FLAG_RT: receiver timeout flag
 901:Drivers/GD32_F470_STD_Driver/Source/gd32f4xx_usart.c ****       \arg        USART_FLAG_EPERR: early parity error flag
 902:Drivers/GD32_F470_STD_Driver/Source/gd32f4xx_usart.c ****     \param[out] none
 903:Drivers/GD32_F470_STD_Driver/Source/gd32f4xx_usart.c ****     \retval     none
 904:Drivers/GD32_F470_STD_Driver/Source/gd32f4xx_usart.c **** */
 905:Drivers/GD32_F470_STD_Driver/Source/gd32f4xx_usart.c **** void usart_flag_clear(uint32_t usart_periph, usart_flag_enum flag)
 906:Drivers/GD32_F470_STD_Driver/Source/gd32f4xx_usart.c **** {
 1934              		.loc 1 906 1 is_stmt 1 view -0
 1935              		.cfi_startproc
 1936              		@ args = 0, pretend = 0, frame = 0
 1937              		@ frame_needed = 0, uses_anonymous_args = 0
 1938              		@ link register save eliminated.
 907:Drivers/GD32_F470_STD_Driver/Source/gd32f4xx_usart.c ****     USART_REG_VAL(usart_periph, flag) &= ~BIT(USART_BIT_POS(flag));
 1939              		.loc 1 907 5 view .LVU441
 1940              		.loc 1 907 39 is_stmt 0 view .LVU442
 1941 0000 4FEA911C 		lsr	ip, r1, #6
 1942 0004 5CF80030 		ldr	r3, [ip, r0]
 1943              		.loc 1 907 43 view .LVU443
 1944 0008 01F01F01 		and	r1, r1, #31
 1945              	.LVL165:
 1946              		.loc 1 907 43 view .LVU444
 1947 000c 0122     		movs	r2, #1
 1948 000e 02FA01F1 		lsl	r1, r2, r1
 1949              		.loc 1 907 39 view .LVU445
 1950 0012 23EA0101 		bic	r1, r3, r1
 1951 0016 4CF80010 		str	r1, [ip, r0]
 908:Drivers/GD32_F470_STD_Driver/Source/gd32f4xx_usart.c **** }
 1952              		.loc 1 908 1 view .LVU446
 1953 001a 7047     		bx	lr
 1954              		.cfi_endproc
 1955              	.LFE166:
 1957              		.section	.text.usart_interrupt_enable,"ax",%progbits
 1958              		.align	1
 1959              		.global	usart_interrupt_enable
 1960              		.syntax unified
 1961              		.thumb
 1962              		.thumb_func
 1964              	usart_interrupt_enable:
 1965              	.LVL166:
 1966              	.LFB167:
 909:Drivers/GD32_F470_STD_Driver/Source/gd32f4xx_usart.c **** 
 910:Drivers/GD32_F470_STD_Driver/Source/gd32f4xx_usart.c **** /*!
 911:Drivers/GD32_F470_STD_Driver/Source/gd32f4xx_usart.c ****     \brief    enable USART interrupt
 912:Drivers/GD32_F470_STD_Driver/Source/gd32f4xx_usart.c ****     \param[in]  usart_periph: USARTx(x=0,1,2,5)/UARTx(x=3,4,6,7)
 913:Drivers/GD32_F470_STD_Driver/Source/gd32f4xx_usart.c ****     \param[in]  interrupt: USART interrupts, refer to usart_interrupt_enum
 914:Drivers/GD32_F470_STD_Driver/Source/gd32f4xx_usart.c ****                 only one parameter can be selected which is shown as below:
 915:Drivers/GD32_F470_STD_Driver/Source/gd32f4xx_usart.c ****       \arg        USART_INT_PERR: parity error interrupt
 916:Drivers/GD32_F470_STD_Driver/Source/gd32f4xx_usart.c ****       \arg        USART_INT_TBE: transmitter buffer empty interrupt
ARM GAS  /tmp/ccLXJ74X.s 			page 51


 917:Drivers/GD32_F470_STD_Driver/Source/gd32f4xx_usart.c ****       \arg        USART_INT_TC: transmission complete interrupt
 918:Drivers/GD32_F470_STD_Driver/Source/gd32f4xx_usart.c ****       \arg        USART_INT_RBNE: read data buffer not empty interrupt and overrun error interrupt
 919:Drivers/GD32_F470_STD_Driver/Source/gd32f4xx_usart.c ****       \arg        USART_INT_IDLE: IDLE line detected interrupt
 920:Drivers/GD32_F470_STD_Driver/Source/gd32f4xx_usart.c ****       \arg        USART_INT_LBD: LIN break detected interrupt
 921:Drivers/GD32_F470_STD_Driver/Source/gd32f4xx_usart.c ****       \arg        USART_INT_ERR: error interrupt
 922:Drivers/GD32_F470_STD_Driver/Source/gd32f4xx_usart.c ****       \arg        USART_INT_CTS: CTS interrupt
 923:Drivers/GD32_F470_STD_Driver/Source/gd32f4xx_usart.c ****       \arg        USART_INT_RT: interrupt enable bit of receive timeout event
 924:Drivers/GD32_F470_STD_Driver/Source/gd32f4xx_usart.c ****       \arg        USART_INT_EB: interrupt enable bit of end of block event
 925:Drivers/GD32_F470_STD_Driver/Source/gd32f4xx_usart.c ****     \param[out] none
 926:Drivers/GD32_F470_STD_Driver/Source/gd32f4xx_usart.c ****     \retval     none
 927:Drivers/GD32_F470_STD_Driver/Source/gd32f4xx_usart.c **** */
 928:Drivers/GD32_F470_STD_Driver/Source/gd32f4xx_usart.c **** void usart_interrupt_enable(uint32_t usart_periph, usart_interrupt_enum interrupt)
 929:Drivers/GD32_F470_STD_Driver/Source/gd32f4xx_usart.c **** {
 1967              		.loc 1 929 1 is_stmt 1 view -0
 1968              		.cfi_startproc
 1969              		@ args = 0, pretend = 0, frame = 0
 1970              		@ frame_needed = 0, uses_anonymous_args = 0
 1971              		@ link register save eliminated.
 930:Drivers/GD32_F470_STD_Driver/Source/gd32f4xx_usart.c ****     USART_REG_VAL(usart_periph, interrupt) |= BIT(USART_BIT_POS(interrupt));
 1972              		.loc 1 930 5 view .LVU448
 1973              		.loc 1 930 44 is_stmt 0 view .LVU449
 1974 0000 4FEA911C 		lsr	ip, r1, #6
 1975 0004 5CF80030 		ldr	r3, [ip, r0]
 1976              		.loc 1 930 47 view .LVU450
 1977 0008 01F01F01 		and	r1, r1, #31
 1978              	.LVL167:
 1979              		.loc 1 930 47 view .LVU451
 1980 000c 0122     		movs	r2, #1
 1981 000e 02FA01F1 		lsl	r1, r2, r1
 1982              		.loc 1 930 44 view .LVU452
 1983 0012 1943     		orrs	r1, r1, r3
 1984 0014 4CF80010 		str	r1, [ip, r0]
 931:Drivers/GD32_F470_STD_Driver/Source/gd32f4xx_usart.c **** }
 1985              		.loc 1 931 1 view .LVU453
 1986 0018 7047     		bx	lr
 1987              		.cfi_endproc
 1988              	.LFE167:
 1990              		.section	.text.usart_interrupt_disable,"ax",%progbits
 1991              		.align	1
 1992              		.global	usart_interrupt_disable
 1993              		.syntax unified
 1994              		.thumb
 1995              		.thumb_func
 1997              	usart_interrupt_disable:
 1998              	.LVL168:
 1999              	.LFB168:
 932:Drivers/GD32_F470_STD_Driver/Source/gd32f4xx_usart.c **** 
 933:Drivers/GD32_F470_STD_Driver/Source/gd32f4xx_usart.c **** /*!
 934:Drivers/GD32_F470_STD_Driver/Source/gd32f4xx_usart.c ****     \brief    disable USART interrupt
 935:Drivers/GD32_F470_STD_Driver/Source/gd32f4xx_usart.c ****     \param[in]  usart_periph: USARTx(x=0,1,2,5)/UARTx(x=3,4,6,7)
 936:Drivers/GD32_F470_STD_Driver/Source/gd32f4xx_usart.c ****     \param[in]  interrupt: USART interrupts, refer to usart_interrupt_enum
 937:Drivers/GD32_F470_STD_Driver/Source/gd32f4xx_usart.c ****                 only one parameter can be selected which is shown as below:
 938:Drivers/GD32_F470_STD_Driver/Source/gd32f4xx_usart.c ****       \arg        USART_INT_PERR: parity error interrupt
 939:Drivers/GD32_F470_STD_Driver/Source/gd32f4xx_usart.c ****       \arg        USART_INT_TBE: transmitter buffer empty interrupt
 940:Drivers/GD32_F470_STD_Driver/Source/gd32f4xx_usart.c ****       \arg        USART_INT_TC: transmission complete interrupt
 941:Drivers/GD32_F470_STD_Driver/Source/gd32f4xx_usart.c ****       \arg        USART_INT_RBNE: read data buffer not empty interrupt and overrun error interrupt
 942:Drivers/GD32_F470_STD_Driver/Source/gd32f4xx_usart.c ****       \arg        USART_INT_IDLE: IDLE line detected interrupt
ARM GAS  /tmp/ccLXJ74X.s 			page 52


 943:Drivers/GD32_F470_STD_Driver/Source/gd32f4xx_usart.c ****       \arg        USART_INT_LBD: LIN break detected interrupt
 944:Drivers/GD32_F470_STD_Driver/Source/gd32f4xx_usart.c ****       \arg        USART_INT_ERR: error interrupt
 945:Drivers/GD32_F470_STD_Driver/Source/gd32f4xx_usart.c ****       \arg        USART_INT_CTS: CTS interrupt
 946:Drivers/GD32_F470_STD_Driver/Source/gd32f4xx_usart.c ****       \arg        USART_INT_RT: interrupt enable bit of receive timeout event
 947:Drivers/GD32_F470_STD_Driver/Source/gd32f4xx_usart.c ****       \arg        USART_INT_EB: interrupt enable bit of end of block event
 948:Drivers/GD32_F470_STD_Driver/Source/gd32f4xx_usart.c ****     \param[out] none
 949:Drivers/GD32_F470_STD_Driver/Source/gd32f4xx_usart.c ****     \retval     none
 950:Drivers/GD32_F470_STD_Driver/Source/gd32f4xx_usart.c **** */
 951:Drivers/GD32_F470_STD_Driver/Source/gd32f4xx_usart.c **** void usart_interrupt_disable(uint32_t usart_periph, usart_interrupt_enum interrupt)
 952:Drivers/GD32_F470_STD_Driver/Source/gd32f4xx_usart.c **** {
 2000              		.loc 1 952 1 is_stmt 1 view -0
 2001              		.cfi_startproc
 2002              		@ args = 0, pretend = 0, frame = 0
 2003              		@ frame_needed = 0, uses_anonymous_args = 0
 2004              		@ link register save eliminated.
 953:Drivers/GD32_F470_STD_Driver/Source/gd32f4xx_usart.c ****     USART_REG_VAL(usart_periph, interrupt) &= ~BIT(USART_BIT_POS(interrupt));
 2005              		.loc 1 953 5 view .LVU455
 2006              		.loc 1 953 44 is_stmt 0 view .LVU456
 2007 0000 4FEA911C 		lsr	ip, r1, #6
 2008 0004 5CF80030 		ldr	r3, [ip, r0]
 2009              		.loc 1 953 48 view .LVU457
 2010 0008 01F01F01 		and	r1, r1, #31
 2011              	.LVL169:
 2012              		.loc 1 953 48 view .LVU458
 2013 000c 0122     		movs	r2, #1
 2014 000e 02FA01F1 		lsl	r1, r2, r1
 2015              		.loc 1 953 44 view .LVU459
 2016 0012 23EA0101 		bic	r1, r3, r1
 2017 0016 4CF80010 		str	r1, [ip, r0]
 954:Drivers/GD32_F470_STD_Driver/Source/gd32f4xx_usart.c **** }
 2018              		.loc 1 954 1 view .LVU460
 2019 001a 7047     		bx	lr
 2020              		.cfi_endproc
 2021              	.LFE168:
 2023              		.section	.text.usart_interrupt_flag_get,"ax",%progbits
 2024              		.align	1
 2025              		.global	usart_interrupt_flag_get
 2026              		.syntax unified
 2027              		.thumb
 2028              		.thumb_func
 2030              	usart_interrupt_flag_get:
 2031              	.LVL170:
 2032              	.LFB169:
 955:Drivers/GD32_F470_STD_Driver/Source/gd32f4xx_usart.c **** 
 956:Drivers/GD32_F470_STD_Driver/Source/gd32f4xx_usart.c **** /*!
 957:Drivers/GD32_F470_STD_Driver/Source/gd32f4xx_usart.c ****     \brief    get USART interrupt and flag status
 958:Drivers/GD32_F470_STD_Driver/Source/gd32f4xx_usart.c ****     \param[in]  usart_periph: USARTx(x=0,1,2,5)/UARTx(x=3,4,6,7)
 959:Drivers/GD32_F470_STD_Driver/Source/gd32f4xx_usart.c ****     \param[in]  int_flag: USART interrupt flags, refer to usart_interrupt_flag_enum
 960:Drivers/GD32_F470_STD_Driver/Source/gd32f4xx_usart.c ****                 only one parameter can be selected which is shown as below:
 961:Drivers/GD32_F470_STD_Driver/Source/gd32f4xx_usart.c ****       \arg        USART_INT_FLAG_PERR: parity error interrupt and flag
 962:Drivers/GD32_F470_STD_Driver/Source/gd32f4xx_usart.c ****       \arg        USART_INT_FLAG_TBE: transmitter buffer empty interrupt and flag
 963:Drivers/GD32_F470_STD_Driver/Source/gd32f4xx_usart.c ****       \arg        USART_INT_FLAG_TC: transmission complete interrupt and flag
 964:Drivers/GD32_F470_STD_Driver/Source/gd32f4xx_usart.c ****       \arg        USART_INT_FLAG_RBNE: read data buffer not empty interrupt and flag
 965:Drivers/GD32_F470_STD_Driver/Source/gd32f4xx_usart.c ****       \arg        USART_INT_FLAG_RBNE_ORERR: read data buffer not empty interrupt and overrun error
 966:Drivers/GD32_F470_STD_Driver/Source/gd32f4xx_usart.c ****       \arg        USART_INT_FLAG_IDLE: IDLE line detected interrupt and flag
 967:Drivers/GD32_F470_STD_Driver/Source/gd32f4xx_usart.c ****       \arg        USART_INT_FLAG_LBD: LIN break detected interrupt and flag
 968:Drivers/GD32_F470_STD_Driver/Source/gd32f4xx_usart.c ****       \arg        USART_INT_FLAG_CTS: CTS interrupt and flag
ARM GAS  /tmp/ccLXJ74X.s 			page 53


 969:Drivers/GD32_F470_STD_Driver/Source/gd32f4xx_usart.c ****       \arg        USART_INT_FLAG_ERR_ORERR: error interrupt and overrun error
 970:Drivers/GD32_F470_STD_Driver/Source/gd32f4xx_usart.c ****       \arg        USART_INT_FLAG_ERR_NERR: error interrupt and noise error flag
 971:Drivers/GD32_F470_STD_Driver/Source/gd32f4xx_usart.c ****       \arg        USART_INT_FLAG_ERR_FERR: error interrupt and frame error flag
 972:Drivers/GD32_F470_STD_Driver/Source/gd32f4xx_usart.c ****       \arg        USART_INT_FLAG_EB: interrupt enable bit of end of block event and flag
 973:Drivers/GD32_F470_STD_Driver/Source/gd32f4xx_usart.c ****       \arg        USART_INT_FLAG_RT: interrupt enable bit of receive timeout event and flag
 974:Drivers/GD32_F470_STD_Driver/Source/gd32f4xx_usart.c ****     \param[out] none
 975:Drivers/GD32_F470_STD_Driver/Source/gd32f4xx_usart.c ****     \retval     FlagStatus: SET or RESET
 976:Drivers/GD32_F470_STD_Driver/Source/gd32f4xx_usart.c **** */
 977:Drivers/GD32_F470_STD_Driver/Source/gd32f4xx_usart.c **** FlagStatus usart_interrupt_flag_get(uint32_t usart_periph, usart_interrupt_flag_enum int_flag)
 978:Drivers/GD32_F470_STD_Driver/Source/gd32f4xx_usart.c **** {
 2033              		.loc 1 978 1 is_stmt 1 view -0
 2034              		.cfi_startproc
 2035              		@ args = 0, pretend = 0, frame = 0
 2036              		@ frame_needed = 0, uses_anonymous_args = 0
 2037              		@ link register save eliminated.
 2038              		.loc 1 978 1 is_stmt 0 view .LVU462
 2039 0000 10B4     		push	{r4}
 2040              	.LCFI4:
 2041              		.cfi_def_cfa_offset 4
 2042              		.cfi_offset 4, -4
 979:Drivers/GD32_F470_STD_Driver/Source/gd32f4xx_usart.c ****     uint32_t intenable = 0U, flagstatus = 0U;
 2043              		.loc 1 979 5 is_stmt 1 view .LVU463
 2044              	.LVL171:
 980:Drivers/GD32_F470_STD_Driver/Source/gd32f4xx_usart.c ****     /* get the interrupt enable bit status */
 981:Drivers/GD32_F470_STD_Driver/Source/gd32f4xx_usart.c ****     intenable = (USART_REG_VAL(usart_periph, int_flag) & BIT(USART_BIT_POS(int_flag)));
 2045              		.loc 1 981 5 view .LVU464
 2046              		.loc 1 981 18 is_stmt 0 view .LVU465
 2047 0002 C1F38913 		ubfx	r3, r1, #6, #10
 2048 0006 1C58     		ldr	r4, [r3, r0]
 2049              		.loc 1 981 58 view .LVU466
 2050 0008 01F01F02 		and	r2, r1, #31
 2051 000c 0123     		movs	r3, #1
 2052 000e 03FA02F2 		lsl	r2, r3, r2
 2053              		.loc 1 981 15 view .LVU467
 2054 0012 2240     		ands	r2, r2, r4
 2055              	.LVL172:
 982:Drivers/GD32_F470_STD_Driver/Source/gd32f4xx_usart.c ****     /* get the corresponding flag bit status */
 983:Drivers/GD32_F470_STD_Driver/Source/gd32f4xx_usart.c ****     flagstatus = (USART_REG_VAL2(usart_periph, int_flag) & BIT(USART_BIT_POS2(int_flag)));
 2056              		.loc 1 983 5 is_stmt 1 view .LVU468
 2057              		.loc 1 983 19 is_stmt 0 view .LVU469
 2058 0014 8C0D     		lsrs	r4, r1, #22
 2059 0016 2058     		ldr	r0, [r4, r0]
 2060              	.LVL173:
 2061              		.loc 1 983 60 view .LVU470
 2062 0018 C1F30441 		ubfx	r1, r1, #16, #5
 2063              	.LVL174:
 2064              		.loc 1 983 60 view .LVU471
 2065 001c 03FA01F1 		lsl	r1, r3, r1
 2066              	.LVL175:
 984:Drivers/GD32_F470_STD_Driver/Source/gd32f4xx_usart.c **** 
 985:Drivers/GD32_F470_STD_Driver/Source/gd32f4xx_usart.c ****     if((0U != flagstatus) && (0U != intenable)) {
 2067              		.loc 1 985 5 is_stmt 1 view .LVU472
 2068              		.loc 1 985 7 is_stmt 0 view .LVU473
 2069 0020 0842     		tst	r0, r1
 2070 0022 02D0     		beq	.L104
 2071              		.loc 1 985 27 discriminator 1 view .LVU474
 2072 0024 2AB9     		cbnz	r2, .L105
ARM GAS  /tmp/ccLXJ74X.s 			page 54


 986:Drivers/GD32_F470_STD_Driver/Source/gd32f4xx_usart.c ****         return SET;
 987:Drivers/GD32_F470_STD_Driver/Source/gd32f4xx_usart.c ****     } else {
 988:Drivers/GD32_F470_STD_Driver/Source/gd32f4xx_usart.c ****         return RESET;
 2073              		.loc 1 988 16 view .LVU475
 2074 0026 0020     		movs	r0, #0
 2075              	.LVL176:
 2076              		.loc 1 988 16 view .LVU476
 2077 0028 00E0     		b	.L103
 2078              	.LVL177:
 2079              	.L104:
 2080              		.loc 1 988 16 view .LVU477
 2081 002a 0020     		movs	r0, #0
 2082              	.LVL178:
 2083              	.L103:
 989:Drivers/GD32_F470_STD_Driver/Source/gd32f4xx_usart.c ****     }
 990:Drivers/GD32_F470_STD_Driver/Source/gd32f4xx_usart.c **** }
 2084              		.loc 1 990 1 view .LVU478
 2085 002c 5DF8044B 		ldr	r4, [sp], #4
 2086              	.LCFI5:
 2087              		.cfi_remember_state
 2088              		.cfi_restore 4
 2089              		.cfi_def_cfa_offset 0
 2090 0030 7047     		bx	lr
 2091              	.LVL179:
 2092              	.L105:
 2093              	.LCFI6:
 2094              		.cfi_restore_state
 986:Drivers/GD32_F470_STD_Driver/Source/gd32f4xx_usart.c ****         return SET;
 2095              		.loc 1 986 16 view .LVU479
 2096 0032 0120     		movs	r0, #1
 2097              	.LVL180:
 986:Drivers/GD32_F470_STD_Driver/Source/gd32f4xx_usart.c ****         return SET;
 2098              		.loc 1 986 16 view .LVU480
 2099 0034 FAE7     		b	.L103
 2100              		.cfi_endproc
 2101              	.LFE169:
 2103              		.section	.text.usart_interrupt_flag_clear,"ax",%progbits
 2104              		.align	1
 2105              		.global	usart_interrupt_flag_clear
 2106              		.syntax unified
 2107              		.thumb
 2108              		.thumb_func
 2110              	usart_interrupt_flag_clear:
 2111              	.LVL181:
 2112              	.LFB170:
 991:Drivers/GD32_F470_STD_Driver/Source/gd32f4xx_usart.c **** 
 992:Drivers/GD32_F470_STD_Driver/Source/gd32f4xx_usart.c **** /*!
 993:Drivers/GD32_F470_STD_Driver/Source/gd32f4xx_usart.c ****     \brief    clear USART interrupt flag in STAT0/STAT1 register
 994:Drivers/GD32_F470_STD_Driver/Source/gd32f4xx_usart.c ****     \param[in]  usart_periph: USARTx(x=0,1,2,5)/UARTx(x=3,4,6,7)
 995:Drivers/GD32_F470_STD_Driver/Source/gd32f4xx_usart.c ****     \param[in]  int_flag: USART interrupt flags, refer to usart_interrupt_flag_enum
 996:Drivers/GD32_F470_STD_Driver/Source/gd32f4xx_usart.c ****                 only one parameter can be selected which is shown as below:
 997:Drivers/GD32_F470_STD_Driver/Source/gd32f4xx_usart.c ****       \arg        USART_INT_FLAG_CTS: CTS change flag
 998:Drivers/GD32_F470_STD_Driver/Source/gd32f4xx_usart.c ****       \arg        USART_INT_FLAG_LBD: LIN break detected flag
 999:Drivers/GD32_F470_STD_Driver/Source/gd32f4xx_usart.c ****       \arg        USART_INT_FLAG_TC: transmission complete
1000:Drivers/GD32_F470_STD_Driver/Source/gd32f4xx_usart.c ****       \arg        USART_INT_FLAG_RBNE: read data buffer not empty
1001:Drivers/GD32_F470_STD_Driver/Source/gd32f4xx_usart.c ****       \arg        USART_INT_FLAG_EB: end of block flag
1002:Drivers/GD32_F470_STD_Driver/Source/gd32f4xx_usart.c ****       \arg        USART_INT_FLAG_RT: receiver timeout flag
ARM GAS  /tmp/ccLXJ74X.s 			page 55


1003:Drivers/GD32_F470_STD_Driver/Source/gd32f4xx_usart.c ****     \param[out] none
1004:Drivers/GD32_F470_STD_Driver/Source/gd32f4xx_usart.c ****     \retval     none
1005:Drivers/GD32_F470_STD_Driver/Source/gd32f4xx_usart.c **** */
1006:Drivers/GD32_F470_STD_Driver/Source/gd32f4xx_usart.c **** void usart_interrupt_flag_clear(uint32_t usart_periph, usart_interrupt_flag_enum int_flag)
1007:Drivers/GD32_F470_STD_Driver/Source/gd32f4xx_usart.c **** {
 2113              		.loc 1 1007 1 is_stmt 1 view -0
 2114              		.cfi_startproc
 2115              		@ args = 0, pretend = 0, frame = 0
 2116              		@ frame_needed = 0, uses_anonymous_args = 0
 2117              		@ link register save eliminated.
1008:Drivers/GD32_F470_STD_Driver/Source/gd32f4xx_usart.c ****     USART_REG_VAL2(usart_periph, int_flag) &= ~BIT(USART_BIT_POS2(int_flag));
 2118              		.loc 1 1008 5 view .LVU482
 2119              		.loc 1 1008 44 is_stmt 0 view .LVU483
 2120 0000 4FEA915C 		lsr	ip, r1, #22
 2121 0004 5CF80030 		ldr	r3, [ip, r0]
 2122              		.loc 1 1008 48 view .LVU484
 2123 0008 C1F30441 		ubfx	r1, r1, #16, #5
 2124              	.LVL182:
 2125              		.loc 1 1008 48 view .LVU485
 2126 000c 0122     		movs	r2, #1
 2127 000e 02FA01F1 		lsl	r1, r2, r1
 2128              		.loc 1 1008 44 view .LVU486
 2129 0012 23EA0101 		bic	r1, r3, r1
 2130 0016 4CF80010 		str	r1, [ip, r0]
1009:Drivers/GD32_F470_STD_Driver/Source/gd32f4xx_usart.c **** }
 2131              		.loc 1 1009 1 view .LVU487
 2132 001a 7047     		bx	lr
 2133              		.cfi_endproc
 2134              	.LFE170:
 2136              		.text
 2137              	.Letext0:
 2138              		.file 2 "/home/funtime/arm_gcc/gcc-arm-none-eabi-10.3-2021.10/arm-none-eabi/include/machine/_defau
 2139              		.file 3 "/home/funtime/arm_gcc/gcc-arm-none-eabi-10.3-2021.10/arm-none-eabi/include/sys/_stdint.h"
 2140              		.file 4 "Core/Inc/gd32f4xx.h"
 2141              		.file 5 "Drivers/GD32_F470_STD_Driver/Include/gd32f4xx_rcu.h"
 2142              		.file 6 "Drivers/GD32_F470_STD_Driver/Include/gd32f4xx_usart.h"
ARM GAS  /tmp/ccLXJ74X.s 			page 56

